Component: ARM Compiler 5.06 update 1 (build 61) Tool: armlink [4d35a8]

==============================================================================

Section Cross References

    stm32f7xx_hal.o(i.HAL_DeInit) refers to stm32f7xx_hal.o(i.HAL_MspDeInit) for HAL_MspDeInit
    stm32f7xx_hal.o(i.HAL_Delay) refers to stm32f7xx_hal.o(i.HAL_GetTick) for HAL_GetTick
    stm32f7xx_hal.o(i.HAL_GetTick) refers to stm32f7xx_hal.o(.data) for uwTick
    stm32f7xx_hal.o(i.HAL_IncTick) refers to stm32f7xx_hal.o(.data) for uwTick
    stm32f7xx_hal.o(i.HAL_Init) refers to stm32f7xx_hal_cortex.o(i.HAL_NVIC_SetPriorityGrouping) for HAL_NVIC_SetPriorityGrouping
    stm32f7xx_hal.o(i.HAL_Init) refers to stm32f7xx_hal.o(i.HAL_InitTick) for HAL_InitTick
    stm32f7xx_hal.o(i.HAL_Init) refers to stm32f7xx_hal.o(i.HAL_MspInit) for HAL_MspInit
    stm32f7xx_hal.o(i.HAL_InitTick) refers to stm32f7xx_hal_rcc.o(i.HAL_RCC_GetHCLKFreq) for HAL_RCC_GetHCLKFreq
    stm32f7xx_hal.o(i.HAL_InitTick) refers to stm32f7xx_hal_cortex.o(i.HAL_SYSTICK_Config) for HAL_SYSTICK_Config
    stm32f7xx_hal.o(i.HAL_InitTick) refers to stm32f7xx_hal_cortex.o(i.HAL_NVIC_SetPriority) for HAL_NVIC_SetPriority
    stm32f7xx_hal.o(.ARM.exidx) refers to stm32f7xx_hal.o(i.HAL_MspInit) for i.HAL_MspInit
    stm32f7xx_hal.o(.ARM.exidx) refers to stm32f7xx_hal.o(i.HAL_InitTick) for i.HAL_InitTick
    stm32f7xx_hal.o(.ARM.exidx) refers to stm32f7xx_hal.o(i.HAL_Init) for i.HAL_Init
    stm32f7xx_hal.o(.ARM.exidx) refers to stm32f7xx_hal.o(i.HAL_MspDeInit) for i.HAL_MspDeInit
    stm32f7xx_hal.o(.ARM.exidx) refers to stm32f7xx_hal.o(i.HAL_DeInit) for i.HAL_DeInit
    stm32f7xx_hal.o(.ARM.exidx) refers to stm32f7xx_hal.o(i.HAL_IncTick) for i.HAL_IncTick
    stm32f7xx_hal.o(.ARM.exidx) refers to stm32f7xx_hal.o(i.HAL_GetTick) for i.HAL_GetTick
    stm32f7xx_hal.o(.ARM.exidx) refers to stm32f7xx_hal.o(i.HAL_Delay) for i.HAL_Delay
    stm32f7xx_hal.o(.ARM.exidx) refers to stm32f7xx_hal.o(i.HAL_SuspendTick) for i.HAL_SuspendTick
    stm32f7xx_hal.o(.ARM.exidx) refers to stm32f7xx_hal.o(i.HAL_ResumeTick) for i.HAL_ResumeTick
    stm32f7xx_hal.o(.ARM.exidx) refers to stm32f7xx_hal.o(i.HAL_GetHalVersion) for i.HAL_GetHalVersion
    stm32f7xx_hal.o(.ARM.exidx) refers to stm32f7xx_hal.o(i.HAL_GetREVID) for i.HAL_GetREVID
    stm32f7xx_hal.o(.ARM.exidx) refers to stm32f7xx_hal.o(i.HAL_GetDEVID) for i.HAL_GetDEVID
    stm32f7xx_hal.o(.ARM.exidx) refers to stm32f7xx_hal.o(i.HAL_DBGMCU_EnableDBGSleepMode) for i.HAL_DBGMCU_EnableDBGSleepMode
    stm32f7xx_hal.o(.ARM.exidx) refers to stm32f7xx_hal.o(i.HAL_DBGMCU_DisableDBGSleepMode) for i.HAL_DBGMCU_DisableDBGSleepMode
    stm32f7xx_hal.o(.ARM.exidx) refers to stm32f7xx_hal.o(i.HAL_DBGMCU_EnableDBGStopMode) for i.HAL_DBGMCU_EnableDBGStopMode
    stm32f7xx_hal.o(.ARM.exidx) refers to stm32f7xx_hal.o(i.HAL_DBGMCU_DisableDBGStopMode) for i.HAL_DBGMCU_DisableDBGStopMode
    stm32f7xx_hal.o(.ARM.exidx) refers to stm32f7xx_hal.o(i.HAL_DBGMCU_EnableDBGStandbyMode) for i.HAL_DBGMCU_EnableDBGStandbyMode
    stm32f7xx_hal.o(.ARM.exidx) refers to stm32f7xx_hal.o(i.HAL_DBGMCU_DisableDBGStandbyMode) for i.HAL_DBGMCU_DisableDBGStandbyMode
    stm32f7xx_hal.o(.ARM.exidx) refers to stm32f7xx_hal.o(i.HAL_EnableCompensationCell) for i.HAL_EnableCompensationCell
    stm32f7xx_hal.o(.ARM.exidx) refers to stm32f7xx_hal.o(i.HAL_DisableCompensationCell) for i.HAL_DisableCompensationCell
    stm32f7xx_hal.o(.ARM.exidx) refers to stm32f7xx_hal.o(i.HAL_EnableFMCMemorySwapping) for i.HAL_EnableFMCMemorySwapping
    stm32f7xx_hal.o(.ARM.exidx) refers to stm32f7xx_hal.o(i.HAL_DisableFMCMemorySwapping) for i.HAL_DisableFMCMemorySwapping
    stm32f7xx_hal_cortex.o(i.HAL_NVIC_GetPriorityGrouping) refers to stm32f7xx_hal_cortex.o(i._ZN44_INTERNAL_22_stm32f7xx_hal_cortex_c_2992dbc024NVIC_GetPriorityGroupingEv) for [local to stm32f7xx_hal_cortex_c]::NVIC_GetPriorityGrouping()
    stm32f7xx_hal_cortex.o(i.HAL_NVIC_SetPriority) refers to stm32f7xx_hal_cortex.o(i._ZN44_INTERNAL_22_stm32f7xx_hal_cortex_c_2992dbc024NVIC_GetPriorityGroupingEv) for [local to stm32f7xx_hal_cortex_c]::NVIC_GetPriorityGrouping()
    stm32f7xx_hal_cortex.o(i.HAL_NVIC_SetPriority) refers to stm32f7xx_hal_cortex.o(i._ZN44_INTERNAL_22_stm32f7xx_hal_cortex_c_2992dbc016NVIC_SetPriorityE9IRQn_Typej) for [local to stm32f7xx_hal_cortex_c]::NVIC_SetPriority(IRQn_Type, unsigned)
    stm32f7xx_hal_cortex.o(i.HAL_SYSTICK_Config) refers to stm32f7xx_hal_cortex.o(i._ZN44_INTERNAL_22_stm32f7xx_hal_cortex_c_2992dbc016NVIC_SetPriorityE9IRQn_Typej) for [local to stm32f7xx_hal_cortex_c]::NVIC_SetPriority(IRQn_Type, unsigned)
    stm32f7xx_hal_cortex.o(i.HAL_SYSTICK_IRQHandler) refers to stm32f7xx_hal_cortex.o(i.HAL_SYSTICK_Callback) for HAL_SYSTICK_Callback
    stm32f7xx_hal_cortex.o(.ARM.exidx) refers to stm32f7xx_hal_cortex.o(i._ZN44_INTERNAL_22_stm32f7xx_hal_cortex_c_2992dbc016NVIC_SetPriorityE9IRQn_Typej) for i._ZN44_INTERNAL_22_stm32f7xx_hal_cortex_c_2992dbc016NVIC_SetPriorityE9IRQn_Typej
    stm32f7xx_hal_cortex.o(.ARM.exidx) refers to stm32f7xx_hal_cortex.o(i.HAL_NVIC_SetPriorityGrouping) for i.HAL_NVIC_SetPriorityGrouping
    stm32f7xx_hal_cortex.o(.ARM.exidx) refers to stm32f7xx_hal_cortex.o(i.HAL_NVIC_SetPriority) for i.HAL_NVIC_SetPriority
    stm32f7xx_hal_cortex.o(.ARM.exidx) refers to stm32f7xx_hal_cortex.o(i.HAL_NVIC_EnableIRQ) for i.HAL_NVIC_EnableIRQ
    stm32f7xx_hal_cortex.o(.ARM.exidx) refers to stm32f7xx_hal_cortex.o(i.HAL_NVIC_DisableIRQ) for i.HAL_NVIC_DisableIRQ
    stm32f7xx_hal_cortex.o(.ARM.exidx) refers to stm32f7xx_hal_cortex.o(i.HAL_NVIC_SystemReset) for i.HAL_NVIC_SystemReset
    stm32f7xx_hal_cortex.o(.ARM.exidx) refers to stm32f7xx_hal_cortex.o(i.HAL_SYSTICK_Config) for i.HAL_SYSTICK_Config
    stm32f7xx_hal_cortex.o(.ARM.exidx) refers to stm32f7xx_hal_cortex.o(i.HAL_MPU_ConfigRegion) for i.HAL_MPU_ConfigRegion
    stm32f7xx_hal_cortex.o(.ARM.exidx) refers to stm32f7xx_hal_cortex.o(i.HAL_NVIC_GetPriorityGrouping) for i.HAL_NVIC_GetPriorityGrouping
    stm32f7xx_hal_cortex.o(.ARM.exidx) refers to stm32f7xx_hal_cortex.o(i.HAL_NVIC_GetPriority) for i.HAL_NVIC_GetPriority
    stm32f7xx_hal_cortex.o(.ARM.exidx) refers to stm32f7xx_hal_cortex.o(i.HAL_NVIC_SetPendingIRQ) for i.HAL_NVIC_SetPendingIRQ
    stm32f7xx_hal_cortex.o(.ARM.exidx) refers to stm32f7xx_hal_cortex.o(i.HAL_NVIC_GetPendingIRQ) for i.HAL_NVIC_GetPendingIRQ
    stm32f7xx_hal_cortex.o(.ARM.exidx) refers to stm32f7xx_hal_cortex.o(i.HAL_NVIC_ClearPendingIRQ) for i.HAL_NVIC_ClearPendingIRQ
    stm32f7xx_hal_cortex.o(.ARM.exidx) refers to stm32f7xx_hal_cortex.o(i.HAL_NVIC_GetActive) for i.HAL_NVIC_GetActive
    stm32f7xx_hal_cortex.o(.ARM.exidx) refers to stm32f7xx_hal_cortex.o(i.HAL_SYSTICK_CLKSourceConfig) for i.HAL_SYSTICK_CLKSourceConfig
    stm32f7xx_hal_cortex.o(.ARM.exidx) refers to stm32f7xx_hal_cortex.o(i.HAL_SYSTICK_Callback) for i.HAL_SYSTICK_Callback
    stm32f7xx_hal_cortex.o(.ARM.exidx) refers to stm32f7xx_hal_cortex.o(i.HAL_SYSTICK_IRQHandler) for i.HAL_SYSTICK_IRQHandler
    stm32f7xx_hal_cortex.o(.ARM.exidx) refers to stm32f7xx_hal_cortex.o(i._ZN44_INTERNAL_22_stm32f7xx_hal_cortex_c_2992dbc024NVIC_GetPriorityGroupingEv) for i._ZN44_INTERNAL_22_stm32f7xx_hal_cortex_c_2992dbc024NVIC_GetPriorityGroupingEv
    stm32f7xx_hal_flash.o(i.FLASH_WaitForLastOperation) refers to stm32f7xx_hal.o(i.HAL_GetTick) for HAL_GetTick
    stm32f7xx_hal_flash.o(i.FLASH_WaitForLastOperation) refers to stm32f7xx_hal_flash.o(i._ZN43_INTERNAL_21_stm32f7xx_hal_flash_c_48aa8f3e18FLASH_SetErrorCodeEv) for [local to stm32f7xx_hal_flash_c]::FLASH_SetErrorCode()
    stm32f7xx_hal_flash.o(i.FLASH_WaitForLastOperation) refers to stm32f7xx_hal_flash.o(.bss) for pFlash
    stm32f7xx_hal_flash.o(i.HAL_FLASH_GetError) refers to stm32f7xx_hal_flash.o(.bss) for pFlash
    stm32f7xx_hal_flash.o(i.HAL_FLASH_IRQHandler) refers to stm32f7xx_hal_flash.o(i.HAL_FLASH_EndOfOperationCallback) for HAL_FLASH_EndOfOperationCallback
    stm32f7xx_hal_flash.o(i.HAL_FLASH_IRQHandler) refers to stm32f7xx_hal_flash_ex.o(i.FLASH_Erase_Sector) for FLASH_Erase_Sector
    stm32f7xx_hal_flash.o(i.HAL_FLASH_IRQHandler) refers to stm32f7xx_hal_flash.o(i._ZN43_INTERNAL_21_stm32f7xx_hal_flash_c_48aa8f3e18FLASH_SetErrorCodeEv) for [local to stm32f7xx_hal_flash_c]::FLASH_SetErrorCode()
    stm32f7xx_hal_flash.o(i.HAL_FLASH_IRQHandler) refers to stm32f7xx_hal_flash.o(i.HAL_FLASH_OperationErrorCallback) for HAL_FLASH_OperationErrorCallback
    stm32f7xx_hal_flash.o(i.HAL_FLASH_IRQHandler) refers to stm32f7xx_hal_flash.o(.bss) for pFlash
    stm32f7xx_hal_flash.o(i.HAL_FLASH_OB_Launch) refers to stm32f7xx_hal_flash.o(i.FLASH_WaitForLastOperation) for FLASH_WaitForLastOperation
    stm32f7xx_hal_flash.o(i.HAL_FLASH_Program) refers to stm32f7xx_hal_flash.o(i.FLASH_WaitForLastOperation) for FLASH_WaitForLastOperation
    stm32f7xx_hal_flash.o(i.HAL_FLASH_Program) refers to stm32f7xx_hal_flash.o(i._ZN43_INTERNAL_21_stm32f7xx_hal_flash_c_48aa8f3e18FLASH_Program_ByteEjh) for [local to stm32f7xx_hal_flash_c]::FLASH_Program_Byte(unsigned, unsigned char)
    stm32f7xx_hal_flash.o(i.HAL_FLASH_Program) refers to stm32f7xx_hal_flash.o(i._ZN43_INTERNAL_21_stm32f7xx_hal_flash_c_48aa8f3e22FLASH_Program_HalfWordEjt) for [local to stm32f7xx_hal_flash_c]::FLASH_Program_HalfWord(unsigned, unsigned short)
    stm32f7xx_hal_flash.o(i.HAL_FLASH_Program) refers to stm32f7xx_hal_flash.o(i._ZN43_INTERNAL_21_stm32f7xx_hal_flash_c_48aa8f3e18FLASH_Program_WordEjj) for [local to stm32f7xx_hal_flash_c]::FLASH_Program_Word(unsigned, unsigned)
    stm32f7xx_hal_flash.o(i.HAL_FLASH_Program) refers to stm32f7xx_hal_flash.o(i._ZN43_INTERNAL_21_stm32f7xx_hal_flash_c_48aa8f3e24FLASH_Program_DoubleWordEjy) for [local to stm32f7xx_hal_flash_c]::FLASH_Program_DoubleWord(unsigned, unsigned long long)
    stm32f7xx_hal_flash.o(i.HAL_FLASH_Program) refers to stm32f7xx_hal_flash.o(.bss) for pFlash
    stm32f7xx_hal_flash.o(i.HAL_FLASH_Program_IT) refers to stm32f7xx_hal_flash.o(i._ZN43_INTERNAL_21_stm32f7xx_hal_flash_c_48aa8f3e18FLASH_Program_ByteEjh) for [local to stm32f7xx_hal_flash_c]::FLASH_Program_Byte(unsigned, unsigned char)
    stm32f7xx_hal_flash.o(i.HAL_FLASH_Program_IT) refers to stm32f7xx_hal_flash.o(i._ZN43_INTERNAL_21_stm32f7xx_hal_flash_c_48aa8f3e22FLASH_Program_HalfWordEjt) for [local to stm32f7xx_hal_flash_c]::FLASH_Program_HalfWord(unsigned, unsigned short)
    stm32f7xx_hal_flash.o(i.HAL_FLASH_Program_IT) refers to stm32f7xx_hal_flash.o(i._ZN43_INTERNAL_21_stm32f7xx_hal_flash_c_48aa8f3e18FLASH_Program_WordEjj) for [local to stm32f7xx_hal_flash_c]::FLASH_Program_Word(unsigned, unsigned)
    stm32f7xx_hal_flash.o(i.HAL_FLASH_Program_IT) refers to stm32f7xx_hal_flash.o(i._ZN43_INTERNAL_21_stm32f7xx_hal_flash_c_48aa8f3e24FLASH_Program_DoubleWordEjy) for [local to stm32f7xx_hal_flash_c]::FLASH_Program_DoubleWord(unsigned, unsigned long long)
    stm32f7xx_hal_flash.o(i.HAL_FLASH_Program_IT) refers to stm32f7xx_hal_flash.o(.bss) for pFlash
    stm32f7xx_hal_flash.o(i._ZN43_INTERNAL_21_stm32f7xx_hal_flash_c_48aa8f3e18FLASH_SetErrorCodeEv) refers to stm32f7xx_hal_flash.o(.bss) for pFlash
    stm32f7xx_hal_flash.o(.ARM.exidx) refers to stm32f7xx_hal_flash.o(i._ZN43_INTERNAL_21_stm32f7xx_hal_flash_c_48aa8f3e18FLASH_SetErrorCodeEv) for i._ZN43_INTERNAL_21_stm32f7xx_hal_flash_c_48aa8f3e18FLASH_SetErrorCodeEv
    stm32f7xx_hal_flash.o(.ARM.exidx) refers to stm32f7xx_hal_flash.o(i.FLASH_WaitForLastOperation) for i.FLASH_WaitForLastOperation
    stm32f7xx_hal_flash.o(.ARM.exidx) refers to stm32f7xx_hal_flash.o(i._ZN43_INTERNAL_21_stm32f7xx_hal_flash_c_48aa8f3e24FLASH_Program_DoubleWordEjy) for i._ZN43_INTERNAL_21_stm32f7xx_hal_flash_c_48aa8f3e24FLASH_Program_DoubleWordEjy
    stm32f7xx_hal_flash.o(.ARM.exidx) refers to stm32f7xx_hal_flash.o(i._ZN43_INTERNAL_21_stm32f7xx_hal_flash_c_48aa8f3e18FLASH_Program_WordEjj) for i._ZN43_INTERNAL_21_stm32f7xx_hal_flash_c_48aa8f3e18FLASH_Program_WordEjj
    stm32f7xx_hal_flash.o(.ARM.exidx) refers to stm32f7xx_hal_flash.o(i._ZN43_INTERNAL_21_stm32f7xx_hal_flash_c_48aa8f3e22FLASH_Program_HalfWordEjt) for i._ZN43_INTERNAL_21_stm32f7xx_hal_flash_c_48aa8f3e22FLASH_Program_HalfWordEjt
    stm32f7xx_hal_flash.o(.ARM.exidx) refers to stm32f7xx_hal_flash.o(i._ZN43_INTERNAL_21_stm32f7xx_hal_flash_c_48aa8f3e18FLASH_Program_ByteEjh) for i._ZN43_INTERNAL_21_stm32f7xx_hal_flash_c_48aa8f3e18FLASH_Program_ByteEjh
    stm32f7xx_hal_flash.o(.ARM.exidx) refers to stm32f7xx_hal_flash.o(i.HAL_FLASH_Program) for i.HAL_FLASH_Program
    stm32f7xx_hal_flash.o(.ARM.exidx) refers to stm32f7xx_hal_flash.o(i.HAL_FLASH_Program_IT) for i.HAL_FLASH_Program_IT
    stm32f7xx_hal_flash.o(.ARM.exidx) refers to stm32f7xx_hal_flash.o(i.HAL_FLASH_OperationErrorCallback) for i.HAL_FLASH_OperationErrorCallback
    stm32f7xx_hal_flash.o(.ARM.exidx) refers to stm32f7xx_hal_flash.o(i.HAL_FLASH_EndOfOperationCallback) for i.HAL_FLASH_EndOfOperationCallback
    stm32f7xx_hal_flash.o(.ARM.exidx) refers to stm32f7xx_hal_flash.o(i.HAL_FLASH_IRQHandler) for i.HAL_FLASH_IRQHandler
    stm32f7xx_hal_flash.o(.ARM.exidx) refers to stm32f7xx_hal_flash.o(i.HAL_FLASH_Unlock) for i.HAL_FLASH_Unlock
    stm32f7xx_hal_flash.o(.ARM.exidx) refers to stm32f7xx_hal_flash.o(i.HAL_FLASH_Lock) for i.HAL_FLASH_Lock
    stm32f7xx_hal_flash.o(.ARM.exidx) refers to stm32f7xx_hal_flash.o(i.HAL_FLASH_OB_Unlock) for i.HAL_FLASH_OB_Unlock
    stm32f7xx_hal_flash.o(.ARM.exidx) refers to stm32f7xx_hal_flash.o(i.HAL_FLASH_OB_Lock) for i.HAL_FLASH_OB_Lock
    stm32f7xx_hal_flash.o(.ARM.exidx) refers to stm32f7xx_hal_flash.o(i.HAL_FLASH_OB_Launch) for i.HAL_FLASH_OB_Launch
    stm32f7xx_hal_flash.o(.ARM.exidx) refers to stm32f7xx_hal_flash.o(i.HAL_FLASH_GetError) for i.HAL_FLASH_GetError
    stm32f7xx_hal_flash_ex.o(i.HAL_FLASHEx_Erase) refers to stm32f7xx_hal_flash.o(i.FLASH_WaitForLastOperation) for FLASH_WaitForLastOperation
    stm32f7xx_hal_flash_ex.o(i.HAL_FLASHEx_Erase) refers to stm32f7xx_hal_flash_ex.o(i._ZN46_INTERNAL_24_stm32f7xx_hal_flash_ex_c_6648b60e15FLASH_MassEraseEh) for [local to stm32f7xx_hal_flash_ex_c]::FLASH_MassErase(unsigned char)
    stm32f7xx_hal_flash_ex.o(i.HAL_FLASHEx_Erase) refers to stm32f7xx_hal_flash_ex.o(i.FLASH_Erase_Sector) for FLASH_Erase_Sector
    stm32f7xx_hal_flash_ex.o(i.HAL_FLASHEx_Erase) refers to stm32f7xx_hal_flash.o(.bss) for pFlash
    stm32f7xx_hal_flash_ex.o(i.HAL_FLASHEx_Erase_IT) refers to stm32f7xx_hal_flash_ex.o(i._ZN46_INTERNAL_24_stm32f7xx_hal_flash_ex_c_6648b60e15FLASH_MassEraseEh) for [local to stm32f7xx_hal_flash_ex_c]::FLASH_MassErase(unsigned char)
    stm32f7xx_hal_flash_ex.o(i.HAL_FLASHEx_Erase_IT) refers to stm32f7xx_hal_flash_ex.o(i.FLASH_Erase_Sector) for FLASH_Erase_Sector
    stm32f7xx_hal_flash_ex.o(i.HAL_FLASHEx_Erase_IT) refers to stm32f7xx_hal_flash.o(.bss) for pFlash
    stm32f7xx_hal_flash_ex.o(i.HAL_FLASHEx_OBGetConfig) refers to stm32f7xx_hal_flash_ex.o(i._ZN46_INTERNAL_24_stm32f7xx_hal_flash_ex_c_6648b60e15FLASH_OB_GetWRPEv) for [local to stm32f7xx_hal_flash_ex_c]::FLASH_OB_GetWRP()
    stm32f7xx_hal_flash_ex.o(i.HAL_FLASHEx_OBGetConfig) refers to stm32f7xx_hal_flash_ex.o(i._ZN46_INTERNAL_24_stm32f7xx_hal_flash_ex_c_6648b60e15FLASH_OB_GetRDPEv) for [local to stm32f7xx_hal_flash_ex_c]::FLASH_OB_GetRDP()
    stm32f7xx_hal_flash_ex.o(i.HAL_FLASHEx_OBGetConfig) refers to stm32f7xx_hal_flash_ex.o(i._ZN46_INTERNAL_24_stm32f7xx_hal_flash_ex_c_6648b60e16FLASH_OB_GetUserEv) for [local to stm32f7xx_hal_flash_ex_c]::FLASH_OB_GetUser()
    stm32f7xx_hal_flash_ex.o(i.HAL_FLASHEx_OBGetConfig) refers to stm32f7xx_hal_flash_ex.o(i._ZN46_INTERNAL_24_stm32f7xx_hal_flash_ex_c_6648b60e15FLASH_OB_GetBOREv) for [local to stm32f7xx_hal_flash_ex_c]::FLASH_OB_GetBOR()
    stm32f7xx_hal_flash_ex.o(i.HAL_FLASHEx_OBGetConfig) refers to stm32f7xx_hal_flash_ex.o(i._ZN46_INTERNAL_24_stm32f7xx_hal_flash_ex_c_6648b60e23FLASH_OB_GetBootAddressEj) for [local to stm32f7xx_hal_flash_ex_c]::FLASH_OB_GetBootAddress(unsigned)
    stm32f7xx_hal_flash_ex.o(i.HAL_FLASHEx_OBProgram) refers to stm32f7xx_hal_flash_ex.o(i._ZN46_INTERNAL_24_stm32f7xx_hal_flash_ex_c_6648b60e18FLASH_OB_EnableWRPEj) for [local to stm32f7xx_hal_flash_ex_c]::FLASH_OB_EnableWRP(unsigned)
    stm32f7xx_hal_flash_ex.o(i.HAL_FLASHEx_OBProgram) refers to stm32f7xx_hal_flash_ex.o(i._ZN46_INTERNAL_24_stm32f7xx_hal_flash_ex_c_6648b60e19FLASH_OB_DisableWRPEj) for [local to stm32f7xx_hal_flash_ex_c]::FLASH_OB_DisableWRP(unsigned)
    stm32f7xx_hal_flash_ex.o(i.HAL_FLASHEx_OBProgram) refers to stm32f7xx_hal_flash_ex.o(i._ZN46_INTERNAL_24_stm32f7xx_hal_flash_ex_c_6648b60e24FLASH_OB_RDP_LevelConfigEh) for [local to stm32f7xx_hal_flash_ex_c]::FLASH_OB_RDP_LevelConfig(unsigned char)
    stm32f7xx_hal_flash_ex.o(i.HAL_FLASHEx_OBProgram) refers to stm32f7xx_hal_flash_ex.o(i._ZN46_INTERNAL_24_stm32f7xx_hal_flash_ex_c_6648b60e19FLASH_OB_UserConfigEjjjjjj) for [local to stm32f7xx_hal_flash_ex_c]::FLASH_OB_UserConfig(unsigned, unsigned, unsigned, unsigned, unsigned, unsigned)
    stm32f7xx_hal_flash_ex.o(i.HAL_FLASHEx_OBProgram) refers to stm32f7xx_hal_flash_ex.o(i._ZN46_INTERNAL_24_stm32f7xx_hal_flash_ex_c_6648b60e24FLASH_OB_BOR_LevelConfigEh) for [local to stm32f7xx_hal_flash_ex_c]::FLASH_OB_BOR_LevelConfig(unsigned char)
    stm32f7xx_hal_flash_ex.o(i.HAL_FLASHEx_OBProgram) refers to stm32f7xx_hal_flash_ex.o(i._ZN46_INTERNAL_24_stm32f7xx_hal_flash_ex_c_6648b60e26FLASH_OB_BootAddressConfigEjj) for [local to stm32f7xx_hal_flash_ex_c]::FLASH_OB_BootAddressConfig(unsigned, unsigned)
    stm32f7xx_hal_flash_ex.o(i.HAL_FLASHEx_OBProgram) refers to stm32f7xx_hal_flash.o(.bss) for pFlash
    stm32f7xx_hal_flash_ex.o(i._ZN46_INTERNAL_24_stm32f7xx_hal_flash_ex_c_6648b60e18FLASH_OB_EnableWRPEj) refers to stm32f7xx_hal_flash.o(i.FLASH_WaitForLastOperation) for FLASH_WaitForLastOperation
    stm32f7xx_hal_flash_ex.o(i._ZN46_INTERNAL_24_stm32f7xx_hal_flash_ex_c_6648b60e19FLASH_OB_DisableWRPEj) refers to stm32f7xx_hal_flash.o(i.FLASH_WaitForLastOperation) for FLASH_WaitForLastOperation
    stm32f7xx_hal_flash_ex.o(i._ZN46_INTERNAL_24_stm32f7xx_hal_flash_ex_c_6648b60e19FLASH_OB_UserConfigEjjjjjj) refers to stm32f7xx_hal_flash.o(i.FLASH_WaitForLastOperation) for FLASH_WaitForLastOperation
    stm32f7xx_hal_flash_ex.o(i._ZN46_INTERNAL_24_stm32f7xx_hal_flash_ex_c_6648b60e24FLASH_OB_RDP_LevelConfigEh) refers to stm32f7xx_hal_flash.o(i.FLASH_WaitForLastOperation) for FLASH_WaitForLastOperation
    stm32f7xx_hal_flash_ex.o(i._ZN46_INTERNAL_24_stm32f7xx_hal_flash_ex_c_6648b60e26FLASH_OB_BootAddressConfigEjj) refers to stm32f7xx_hal_flash.o(i.FLASH_WaitForLastOperation) for FLASH_WaitForLastOperation
    stm32f7xx_hal_flash_ex.o(.ARM.exidx) refers to stm32f7xx_hal_flash_ex.o(i.FLASH_Erase_Sector) for i.FLASH_Erase_Sector
    stm32f7xx_hal_flash_ex.o(.ARM.exidx) refers to stm32f7xx_hal_flash_ex.o(i._ZN46_INTERNAL_24_stm32f7xx_hal_flash_ex_c_6648b60e15FLASH_MassEraseEh) for i._ZN46_INTERNAL_24_stm32f7xx_hal_flash_ex_c_6648b60e15FLASH_MassEraseEh
    stm32f7xx_hal_flash_ex.o(.ARM.exidx) refers to stm32f7xx_hal_flash_ex.o(i.HAL_FLASHEx_Erase) for i.HAL_FLASHEx_Erase
    stm32f7xx_hal_flash_ex.o(.ARM.exidx) refers to stm32f7xx_hal_flash_ex.o(i.HAL_FLASHEx_Erase_IT) for i.HAL_FLASHEx_Erase_IT
    stm32f7xx_hal_flash_ex.o(.ARM.exidx) refers to stm32f7xx_hal_flash_ex.o(i._ZN46_INTERNAL_24_stm32f7xx_hal_flash_ex_c_6648b60e26FLASH_OB_BootAddressConfigEjj) for i._ZN46_INTERNAL_24_stm32f7xx_hal_flash_ex_c_6648b60e26FLASH_OB_BootAddressConfigEjj
    stm32f7xx_hal_flash_ex.o(.ARM.exidx) refers to stm32f7xx_hal_flash_ex.o(i._ZN46_INTERNAL_24_stm32f7xx_hal_flash_ex_c_6648b60e24FLASH_OB_BOR_LevelConfigEh) for i._ZN46_INTERNAL_24_stm32f7xx_hal_flash_ex_c_6648b60e24FLASH_OB_BOR_LevelConfigEh
    stm32f7xx_hal_flash_ex.o(.ARM.exidx) refers to stm32f7xx_hal_flash_ex.o(i._ZN46_INTERNAL_24_stm32f7xx_hal_flash_ex_c_6648b60e19FLASH_OB_UserConfigEjjjjjj) for i._ZN46_INTERNAL_24_stm32f7xx_hal_flash_ex_c_6648b60e19FLASH_OB_UserConfigEjjjjjj
    stm32f7xx_hal_flash_ex.o(.ARM.exidx) refers to stm32f7xx_hal_flash_ex.o(i._ZN46_INTERNAL_24_stm32f7xx_hal_flash_ex_c_6648b60e24FLASH_OB_RDP_LevelConfigEh) for i._ZN46_INTERNAL_24_stm32f7xx_hal_flash_ex_c_6648b60e24FLASH_OB_RDP_LevelConfigEh
    stm32f7xx_hal_flash_ex.o(.ARM.exidx) refers to stm32f7xx_hal_flash_ex.o(i._ZN46_INTERNAL_24_stm32f7xx_hal_flash_ex_c_6648b60e19FLASH_OB_DisableWRPEj) for i._ZN46_INTERNAL_24_stm32f7xx_hal_flash_ex_c_6648b60e19FLASH_OB_DisableWRPEj
    stm32f7xx_hal_flash_ex.o(.ARM.exidx) refers to stm32f7xx_hal_flash_ex.o(i._ZN46_INTERNAL_24_stm32f7xx_hal_flash_ex_c_6648b60e18FLASH_OB_EnableWRPEj) for i._ZN46_INTERNAL_24_stm32f7xx_hal_flash_ex_c_6648b60e18FLASH_OB_EnableWRPEj
    stm32f7xx_hal_flash_ex.o(.ARM.exidx) refers to stm32f7xx_hal_flash_ex.o(i.HAL_FLASHEx_OBProgram) for i.HAL_FLASHEx_OBProgram
    stm32f7xx_hal_flash_ex.o(.ARM.exidx) refers to stm32f7xx_hal_flash_ex.o(i._ZN46_INTERNAL_24_stm32f7xx_hal_flash_ex_c_6648b60e23FLASH_OB_GetBootAddressEj) for i._ZN46_INTERNAL_24_stm32f7xx_hal_flash_ex_c_6648b60e23FLASH_OB_GetBootAddressEj
    stm32f7xx_hal_flash_ex.o(.ARM.exidx) refers to stm32f7xx_hal_flash_ex.o(i._ZN46_INTERNAL_24_stm32f7xx_hal_flash_ex_c_6648b60e15FLASH_OB_GetBOREv) for i._ZN46_INTERNAL_24_stm32f7xx_hal_flash_ex_c_6648b60e15FLASH_OB_GetBOREv
    stm32f7xx_hal_flash_ex.o(.ARM.exidx) refers to stm32f7xx_hal_flash_ex.o(i._ZN46_INTERNAL_24_stm32f7xx_hal_flash_ex_c_6648b60e16FLASH_OB_GetUserEv) for i._ZN46_INTERNAL_24_stm32f7xx_hal_flash_ex_c_6648b60e16FLASH_OB_GetUserEv
    stm32f7xx_hal_flash_ex.o(.ARM.exidx) refers to stm32f7xx_hal_flash_ex.o(i._ZN46_INTERNAL_24_stm32f7xx_hal_flash_ex_c_6648b60e15FLASH_OB_GetRDPEv) for i._ZN46_INTERNAL_24_stm32f7xx_hal_flash_ex_c_6648b60e15FLASH_OB_GetRDPEv
    stm32f7xx_hal_flash_ex.o(.ARM.exidx) refers to stm32f7xx_hal_flash_ex.o(i._ZN46_INTERNAL_24_stm32f7xx_hal_flash_ex_c_6648b60e15FLASH_OB_GetWRPEv) for i._ZN46_INTERNAL_24_stm32f7xx_hal_flash_ex_c_6648b60e15FLASH_OB_GetWRPEv
    stm32f7xx_hal_flash_ex.o(.ARM.exidx) refers to stm32f7xx_hal_flash_ex.o(i.HAL_FLASHEx_OBGetConfig) for i.HAL_FLASHEx_OBGetConfig
    stm32f7xx_hal_gpio.o(i.HAL_GPIO_EXTI_IRQHandler) refers to stm32f7xx_hal_gpio.o(i.HAL_GPIO_EXTI_Callback) for HAL_GPIO_EXTI_Callback
    stm32f7xx_hal_gpio.o(.ARM.exidx) refers to stm32f7xx_hal_gpio.o(i.HAL_GPIO_Init) for i.HAL_GPIO_Init
    stm32f7xx_hal_gpio.o(.ARM.exidx) refers to stm32f7xx_hal_gpio.o(i.HAL_GPIO_DeInit) for i.HAL_GPIO_DeInit
    stm32f7xx_hal_gpio.o(.ARM.exidx) refers to stm32f7xx_hal_gpio.o(i.HAL_GPIO_ReadPin) for i.HAL_GPIO_ReadPin
    stm32f7xx_hal_gpio.o(.ARM.exidx) refers to stm32f7xx_hal_gpio.o(i.HAL_GPIO_WritePin) for i.HAL_GPIO_WritePin
    stm32f7xx_hal_gpio.o(.ARM.exidx) refers to stm32f7xx_hal_gpio.o(i.HAL_GPIO_TogglePin) for i.HAL_GPIO_TogglePin
    stm32f7xx_hal_gpio.o(.ARM.exidx) refers to stm32f7xx_hal_gpio.o(i.HAL_GPIO_LockPin) for i.HAL_GPIO_LockPin
    stm32f7xx_hal_gpio.o(.ARM.exidx) refers to stm32f7xx_hal_gpio.o(i.HAL_GPIO_EXTI_Callback) for i.HAL_GPIO_EXTI_Callback
    stm32f7xx_hal_gpio.o(.ARM.exidx) refers to stm32f7xx_hal_gpio.o(i.HAL_GPIO_EXTI_IRQHandler) for i.HAL_GPIO_EXTI_IRQHandler
    stm32f7xx_hal_rcc.o(i.HAL_RCC_ClockConfig) refers to stm32f7xx_hal.o(i.HAL_GetTick) for HAL_GetTick
    stm32f7xx_hal_rcc.o(i.HAL_RCC_ClockConfig) refers to stm32f7xx_hal.o(i.HAL_InitTick) for HAL_InitTick
    stm32f7xx_hal_rcc.o(i.HAL_RCC_GetHCLKFreq) refers to stm32f7xx_hal_rcc.o(i.HAL_RCC_GetSysClockFreq) for HAL_RCC_GetSysClockFreq
    stm32f7xx_hal_rcc.o(i.HAL_RCC_GetHCLKFreq) refers to stm32f7xx_hal_rcc.o(.constdata) for APBAHBPrescTable
    stm32f7xx_hal_rcc.o(i.HAL_RCC_GetHCLKFreq) refers to system_stm32f7xx.o(.data) for SystemCoreClock
    stm32f7xx_hal_rcc.o(i.HAL_RCC_GetPCLK1Freq) refers to stm32f7xx_hal_rcc.o(i.HAL_RCC_GetHCLKFreq) for HAL_RCC_GetHCLKFreq
    stm32f7xx_hal_rcc.o(i.HAL_RCC_GetPCLK1Freq) refers to stm32f7xx_hal_rcc.o(.constdata) for APBAHBPrescTable
    stm32f7xx_hal_rcc.o(i.HAL_RCC_GetPCLK2Freq) refers to stm32f7xx_hal_rcc.o(i.HAL_RCC_GetHCLKFreq) for HAL_RCC_GetHCLKFreq
    stm32f7xx_hal_rcc.o(i.HAL_RCC_GetPCLK2Freq) refers to stm32f7xx_hal_rcc.o(.constdata) for APBAHBPrescTable
    stm32f7xx_hal_rcc.o(i.HAL_RCC_MCOConfig) refers to stm32f7xx_hal_gpio.o(i.HAL_GPIO_Init) for HAL_GPIO_Init
    stm32f7xx_hal_rcc.o(i.HAL_RCC_NMI_IRQHandler) refers to stm32f7xx_hal_rcc.o(i.HAL_RCC_CSSCallback) for HAL_RCC_CSSCallback
    stm32f7xx_hal_rcc.o(i.HAL_RCC_OscConfig) refers to stm32f7xx_hal.o(i.HAL_GetTick) for HAL_GetTick
    stm32f7xx_hal_rcc.o(.ARM.exidx) refers to stm32f7xx_hal_rcc.o(i.HAL_RCC_DeInit) for i.HAL_RCC_DeInit
    stm32f7xx_hal_rcc.o(.ARM.exidx) refers to stm32f7xx_hal_rcc.o(i.HAL_RCC_OscConfig) for i.HAL_RCC_OscConfig
    stm32f7xx_hal_rcc.o(.ARM.exidx) refers to stm32f7xx_hal_rcc.o(i.HAL_RCC_ClockConfig) for i.HAL_RCC_ClockConfig
    stm32f7xx_hal_rcc.o(.ARM.exidx) refers to stm32f7xx_hal_rcc.o(i.HAL_RCC_MCOConfig) for i.HAL_RCC_MCOConfig
    stm32f7xx_hal_rcc.o(.ARM.exidx) refers to stm32f7xx_hal_rcc.o(i.HAL_RCC_EnableCSS) for i.HAL_RCC_EnableCSS
    stm32f7xx_hal_rcc.o(.ARM.exidx) refers to stm32f7xx_hal_rcc.o(i.HAL_RCC_DisableCSS) for i.HAL_RCC_DisableCSS
    stm32f7xx_hal_rcc.o(.ARM.exidx) refers to stm32f7xx_hal_rcc.o(i.HAL_RCC_GetSysClockFreq) for i.HAL_RCC_GetSysClockFreq
    stm32f7xx_hal_rcc.o(.ARM.exidx) refers to stm32f7xx_hal_rcc.o(i.HAL_RCC_GetHCLKFreq) for i.HAL_RCC_GetHCLKFreq
    stm32f7xx_hal_rcc.o(.ARM.exidx) refers to stm32f7xx_hal_rcc.o(i.HAL_RCC_GetPCLK1Freq) for i.HAL_RCC_GetPCLK1Freq
    stm32f7xx_hal_rcc.o(.ARM.exidx) refers to stm32f7xx_hal_rcc.o(i.HAL_RCC_GetPCLK2Freq) for i.HAL_RCC_GetPCLK2Freq
    stm32f7xx_hal_rcc.o(.ARM.exidx) refers to stm32f7xx_hal_rcc.o(i.HAL_RCC_GetOscConfig) for i.HAL_RCC_GetOscConfig
    stm32f7xx_hal_rcc.o(.ARM.exidx) refers to stm32f7xx_hal_rcc.o(i.HAL_RCC_GetClockConfig) for i.HAL_RCC_GetClockConfig
    stm32f7xx_hal_rcc.o(.ARM.exidx) refers to stm32f7xx_hal_rcc.o(i.HAL_RCC_CSSCallback) for i.HAL_RCC_CSSCallback
    stm32f7xx_hal_rcc.o(.ARM.exidx) refers to stm32f7xx_hal_rcc.o(i.HAL_RCC_NMI_IRQHandler) for i.HAL_RCC_NMI_IRQHandler
    stm32f7xx_hal_rcc_ex.o(i.HAL_RCCEx_PeriphCLKConfig) refers to stm32f7xx_hal.o(i.HAL_GetTick) for HAL_GetTick
    stm32f7xx_hal_rcc_ex.o(.ARM.exidx) refers to stm32f7xx_hal_rcc_ex.o(i.HAL_RCCEx_PeriphCLKConfig) for i.HAL_RCCEx_PeriphCLKConfig
    stm32f7xx_hal_rcc_ex.o(.ARM.exidx) refers to stm32f7xx_hal_rcc_ex.o(i.HAL_RCCEx_GetPeriphCLKConfig) for i.HAL_RCCEx_GetPeriphCLKConfig
    stm32f7xx_hal_rcc_ex.o(.ARM.exidx) refers to stm32f7xx_hal_rcc_ex.o(i.HAL_RCCEx_GetPeriphCLKFreq) for i.HAL_RCCEx_GetPeriphCLKFreq
    stm32f7xx_hal_pwr.o(i.HAL_PWR_PVD_IRQHandler) refers to stm32f7xx_hal_pwr.o(i.HAL_PWR_PVDCallback) for HAL_PWR_PVDCallback
    stm32f7xx_hal_pwr.o(.ARM.exidx) refers to stm32f7xx_hal_pwr.o(i.HAL_PWR_DeInit) for i.HAL_PWR_DeInit
    stm32f7xx_hal_pwr.o(.ARM.exidx) refers to stm32f7xx_hal_pwr.o(i.HAL_PWR_EnableBkUpAccess) for i.HAL_PWR_EnableBkUpAccess
    stm32f7xx_hal_pwr.o(.ARM.exidx) refers to stm32f7xx_hal_pwr.o(i.HAL_PWR_DisableBkUpAccess) for i.HAL_PWR_DisableBkUpAccess
    stm32f7xx_hal_pwr.o(.ARM.exidx) refers to stm32f7xx_hal_pwr.o(i.HAL_PWR_ConfigPVD) for i.HAL_PWR_ConfigPVD
    stm32f7xx_hal_pwr.o(.ARM.exidx) refers to stm32f7xx_hal_pwr.o(i.HAL_PWR_EnablePVD) for i.HAL_PWR_EnablePVD
    stm32f7xx_hal_pwr.o(.ARM.exidx) refers to stm32f7xx_hal_pwr.o(i.HAL_PWR_DisablePVD) for i.HAL_PWR_DisablePVD
    stm32f7xx_hal_pwr.o(.ARM.exidx) refers to stm32f7xx_hal_pwr.o(i.HAL_PWR_EnableWakeUpPin) for i.HAL_PWR_EnableWakeUpPin
    stm32f7xx_hal_pwr.o(.ARM.exidx) refers to stm32f7xx_hal_pwr.o(i.HAL_PWR_DisableWakeUpPin) for i.HAL_PWR_DisableWakeUpPin
    stm32f7xx_hal_pwr.o(.ARM.exidx) refers to stm32f7xx_hal_pwr.o(i.HAL_PWR_EnterSLEEPMode) for i.HAL_PWR_EnterSLEEPMode
    stm32f7xx_hal_pwr.o(.ARM.exidx) refers to stm32f7xx_hal_pwr.o(i.HAL_PWR_EnterSTOPMode) for i.HAL_PWR_EnterSTOPMode
    stm32f7xx_hal_pwr.o(.ARM.exidx) refers to stm32f7xx_hal_pwr.o(i.HAL_PWR_EnterSTANDBYMode) for i.HAL_PWR_EnterSTANDBYMode
    stm32f7xx_hal_pwr.o(.ARM.exidx) refers to stm32f7xx_hal_pwr.o(i.HAL_PWR_PVDCallback) for i.HAL_PWR_PVDCallback
    stm32f7xx_hal_pwr.o(.ARM.exidx) refers to stm32f7xx_hal_pwr.o(i.HAL_PWR_PVD_IRQHandler) for i.HAL_PWR_PVD_IRQHandler
    stm32f7xx_hal_pwr.o(.ARM.exidx) refers to stm32f7xx_hal_pwr.o(i.HAL_PWR_EnableSleepOnExit) for i.HAL_PWR_EnableSleepOnExit
    stm32f7xx_hal_pwr.o(.ARM.exidx) refers to stm32f7xx_hal_pwr.o(i.HAL_PWR_DisableSleepOnExit) for i.HAL_PWR_DisableSleepOnExit
    stm32f7xx_hal_pwr.o(.ARM.exidx) refers to stm32f7xx_hal_pwr.o(i.HAL_PWR_EnableSEVOnPend) for i.HAL_PWR_EnableSEVOnPend
    stm32f7xx_hal_pwr.o(.ARM.exidx) refers to stm32f7xx_hal_pwr.o(i.HAL_PWR_DisableSEVOnPend) for i.HAL_PWR_DisableSEVOnPend
    stm32f7xx_hal_pwr_ex.o(i.HAL_PWREx_ControlVoltageScaling) refers to stm32f7xx_hal.o(i.HAL_GetTick) for HAL_GetTick
    stm32f7xx_hal_pwr_ex.o(i.HAL_PWREx_DisableBkUpReg) refers to stm32f7xx_hal.o(i.HAL_GetTick) for HAL_GetTick
    stm32f7xx_hal_pwr_ex.o(i.HAL_PWREx_DisableOverDrive) refers to stm32f7xx_hal.o(i.HAL_GetTick) for HAL_GetTick
    stm32f7xx_hal_pwr_ex.o(i.HAL_PWREx_EnableBkUpReg) refers to stm32f7xx_hal.o(i.HAL_GetTick) for HAL_GetTick
    stm32f7xx_hal_pwr_ex.o(i.HAL_PWREx_EnableOverDrive) refers to stm32f7xx_hal.o(i.HAL_GetTick) for HAL_GetTick
    stm32f7xx_hal_pwr_ex.o(i.HAL_PWREx_EnterUnderDriveSTOPMode) refers to stm32f7xx_hal.o(i.HAL_GetTick) for HAL_GetTick
    stm32f7xx_hal_pwr_ex.o(.ARM.exidx) refers to stm32f7xx_hal_pwr_ex.o(i.HAL_PWREx_EnableBkUpReg) for i.HAL_PWREx_EnableBkUpReg
    stm32f7xx_hal_pwr_ex.o(.ARM.exidx) refers to stm32f7xx_hal_pwr_ex.o(i.HAL_PWREx_DisableBkUpReg) for i.HAL_PWREx_DisableBkUpReg
    stm32f7xx_hal_pwr_ex.o(.ARM.exidx) refers to stm32f7xx_hal_pwr_ex.o(i.HAL_PWREx_EnableFlashPowerDown) for i.HAL_PWREx_EnableFlashPowerDown
    stm32f7xx_hal_pwr_ex.o(.ARM.exidx) refers to stm32f7xx_hal_pwr_ex.o(i.HAL_PWREx_DisableFlashPowerDown) for i.HAL_PWREx_DisableFlashPowerDown
    stm32f7xx_hal_pwr_ex.o(.ARM.exidx) refers to stm32f7xx_hal_pwr_ex.o(i.HAL_PWREx_EnableMainRegulatorLowVoltage) for i.HAL_PWREx_EnableMainRegulatorLowVoltage
    stm32f7xx_hal_pwr_ex.o(.ARM.exidx) refers to stm32f7xx_hal_pwr_ex.o(i.HAL_PWREx_DisableMainRegulatorLowVoltage) for i.HAL_PWREx_DisableMainRegulatorLowVoltage
    stm32f7xx_hal_pwr_ex.o(.ARM.exidx) refers to stm32f7xx_hal_pwr_ex.o(i.HAL_PWREx_EnableLowRegulatorLowVoltage) for i.HAL_PWREx_EnableLowRegulatorLowVoltage
    stm32f7xx_hal_pwr_ex.o(.ARM.exidx) refers to stm32f7xx_hal_pwr_ex.o(i.HAL_PWREx_DisableLowRegulatorLowVoltage) for i.HAL_PWREx_DisableLowRegulatorLowVoltage
    stm32f7xx_hal_pwr_ex.o(.ARM.exidx) refers to stm32f7xx_hal_pwr_ex.o(i.HAL_PWREx_EnableOverDrive) for i.HAL_PWREx_EnableOverDrive
    stm32f7xx_hal_pwr_ex.o(.ARM.exidx) refers to stm32f7xx_hal_pwr_ex.o(i.HAL_PWREx_DisableOverDrive) for i.HAL_PWREx_DisableOverDrive
    stm32f7xx_hal_pwr_ex.o(.ARM.exidx) refers to stm32f7xx_hal_pwr_ex.o(i.HAL_PWREx_EnterUnderDriveSTOPMode) for i.HAL_PWREx_EnterUnderDriveSTOPMode
    stm32f7xx_hal_pwr_ex.o(.ARM.exidx) refers to stm32f7xx_hal_pwr_ex.o(i.HAL_PWREx_GetVoltageRange) for i.HAL_PWREx_GetVoltageRange
    stm32f7xx_hal_pwr_ex.o(.ARM.exidx) refers to stm32f7xx_hal_pwr_ex.o(i.HAL_PWREx_ControlVoltageScaling) for i.HAL_PWREx_ControlVoltageScaling
    stm32f7xx_hal_spi.o(i.HAL_SPI_DMAStop) refers to stm32f7xx_hal_dma.o(i.HAL_DMA_Abort) for HAL_DMA_Abort
    stm32f7xx_hal_spi.o(i.HAL_SPI_DeInit) refers to stm32f7xx_hal_spi.o(i._ZN41_INTERNAL_19_stm32f7xx_hal_spi_c_5e7b22bd29SPI_WaitFifoStateUntilTimeoutEP19__SPI_HandleTypeDefjjj) for [local to stm32f7xx_hal_spi_c]::SPI_WaitFifoStateUntilTimeout(__SPI_HandleTypeDef*, unsigned, unsigned, unsigned)
    stm32f7xx_hal_spi.o(i.HAL_SPI_DeInit) refers to stm32f7xx_hal_spi.o(i._ZN41_INTERNAL_19_stm32f7xx_hal_spi_c_5e7b22bd29SPI_WaitFlagStateUntilTimeoutEP19__SPI_HandleTypeDefjjj) for [local to stm32f7xx_hal_spi_c]::SPI_WaitFlagStateUntilTimeout(__SPI_HandleTypeDef*, unsigned, unsigned, unsigned)
    stm32f7xx_hal_spi.o(i.HAL_SPI_DeInit) refers to stm32f7xx_hal_spi.o(i.HAL_SPI_MspDeInit) for HAL_SPI_MspDeInit
    stm32f7xx_hal_spi.o(i.HAL_SPI_IRQHandler) refers to stm32f7xx_hal_spi.o(i.HAL_SPI_ErrorCallback) for HAL_SPI_ErrorCallback
    stm32f7xx_hal_spi.o(i.HAL_SPI_Init) refers to stm32f7xx_hal_spi.o(i.HAL_SPI_MspInit) for HAL_SPI_MspInit
    stm32f7xx_hal_spi.o(i.HAL_SPI_Receive) refers to stm32f7xx_hal_spi.o(i.HAL_SPI_TransmitReceive) for HAL_SPI_TransmitReceive
    stm32f7xx_hal_spi.o(i.HAL_SPI_Receive) refers to stm32f7xx_hal_spi.o(i._ZN41_INTERNAL_19_stm32f7xx_hal_spi_c_5e7b22bd29SPI_WaitFlagStateUntilTimeoutEP19__SPI_HandleTypeDefjjj) for [local to stm32f7xx_hal_spi_c]::SPI_WaitFlagStateUntilTimeout(__SPI_HandleTypeDef*, unsigned, unsigned, unsigned)
    stm32f7xx_hal_spi.o(i.HAL_SPI_Receive) refers to stm32f7xx_hal_spi.o(i._ZN41_INTERNAL_19_stm32f7xx_hal_spi_c_5e7b22bd20SPI_EndRxTransactionEP19__SPI_HandleTypeDefj) for [local to stm32f7xx_hal_spi_c]::SPI_EndRxTransaction(__SPI_HandleTypeDef*, unsigned)
    stm32f7xx_hal_spi.o(i.HAL_SPI_Receive_DMA) refers to stm32f7xx_hal_spi.o(i.HAL_SPI_TransmitReceive_DMA) for HAL_SPI_TransmitReceive_DMA
    stm32f7xx_hal_spi.o(i.HAL_SPI_Receive_DMA) refers to stm32f7xx_hal_dma.o(i.HAL_DMA_Start_IT) for HAL_DMA_Start_IT
    stm32f7xx_hal_spi.o(i.HAL_SPI_Receive_DMA) refers to stm32f7xx_hal_spi.o(i._ZN41_INTERNAL_19_stm32f7xx_hal_spi_c_5e7b22bd22SPI_DMAHalfReceiveCpltEP19__DMA_HandleTypeDef) for [local to stm32f7xx_hal_spi_c]::SPI_DMAHalfReceiveCplt(__DMA_HandleTypeDef*)
    stm32f7xx_hal_spi.o(i.HAL_SPI_Receive_DMA) refers to stm32f7xx_hal_spi.o(i._ZN41_INTERNAL_19_stm32f7xx_hal_spi_c_5e7b22bd18SPI_DMAReceiveCpltEP19__DMA_HandleTypeDef) for [local to stm32f7xx_hal_spi_c]::SPI_DMAReceiveCplt(__DMA_HandleTypeDef*)
    stm32f7xx_hal_spi.o(i.HAL_SPI_Receive_DMA) refers to stm32f7xx_hal_spi.o(i._ZN41_INTERNAL_19_stm32f7xx_hal_spi_c_5e7b22bd12SPI_DMAErrorEP19__DMA_HandleTypeDef) for [local to stm32f7xx_hal_spi_c]::SPI_DMAError(__DMA_HandleTypeDef*)
    stm32f7xx_hal_spi.o(i.HAL_SPI_Receive_IT) refers to stm32f7xx_hal_spi.o(i.HAL_SPI_TransmitReceive_IT) for HAL_SPI_TransmitReceive_IT
    stm32f7xx_hal_spi.o(i.HAL_SPI_Receive_IT) refers to stm32f7xx_hal_spi.o(i._ZN41_INTERNAL_19_stm32f7xx_hal_spi_c_5e7b22bd15SPI_RxISR_16BITEP19__SPI_HandleTypeDef) for [local to stm32f7xx_hal_spi_c]::SPI_RxISR_16BIT(__SPI_HandleTypeDef*)
    stm32f7xx_hal_spi.o(i.HAL_SPI_Receive_IT) refers to stm32f7xx_hal_spi.o(i._ZN41_INTERNAL_19_stm32f7xx_hal_spi_c_5e7b22bd14SPI_RxISR_8BITEP19__SPI_HandleTypeDef) for [local to stm32f7xx_hal_spi_c]::SPI_RxISR_8BIT(__SPI_HandleTypeDef*)
    stm32f7xx_hal_spi.o(i.HAL_SPI_Transmit) refers to stm32f7xx_hal_spi.o(i._ZN41_INTERNAL_19_stm32f7xx_hal_spi_c_5e7b22bd29SPI_WaitFlagStateUntilTimeoutEP19__SPI_HandleTypeDefjjj) for [local to stm32f7xx_hal_spi_c]::SPI_WaitFlagStateUntilTimeout(__SPI_HandleTypeDef*, unsigned, unsigned, unsigned)
    stm32f7xx_hal_spi.o(i.HAL_SPI_Transmit) refers to stm32f7xx_hal_spi.o(i._ZN41_INTERNAL_19_stm32f7xx_hal_spi_c_5e7b22bd22SPI_EndRxTxTransactionEP19__SPI_HandleTypeDefj) for [local to stm32f7xx_hal_spi_c]::SPI_EndRxTxTransaction(__SPI_HandleTypeDef*, unsigned)
    stm32f7xx_hal_spi.o(i.HAL_SPI_TransmitReceive) refers to stm32f7xx_hal.o(i.HAL_GetTick) for HAL_GetTick
    stm32f7xx_hal_spi.o(i.HAL_SPI_TransmitReceive) refers to stm32f7xx_hal_spi.o(i._ZN41_INTERNAL_19_stm32f7xx_hal_spi_c_5e7b22bd29SPI_WaitFlagStateUntilTimeoutEP19__SPI_HandleTypeDefjjj) for [local to stm32f7xx_hal_spi_c]::SPI_WaitFlagStateUntilTimeout(__SPI_HandleTypeDef*, unsigned, unsigned, unsigned)
    stm32f7xx_hal_spi.o(i.HAL_SPI_TransmitReceive) refers to stm32f7xx_hal_spi.o(i._ZN41_INTERNAL_19_stm32f7xx_hal_spi_c_5e7b22bd22SPI_EndRxTxTransactionEP19__SPI_HandleTypeDefj) for [local to stm32f7xx_hal_spi_c]::SPI_EndRxTxTransaction(__SPI_HandleTypeDef*, unsigned)
    stm32f7xx_hal_spi.o(i.HAL_SPI_TransmitReceive_DMA) refers to stm32f7xx_hal_dma.o(i.HAL_DMA_Start_IT) for HAL_DMA_Start_IT
    stm32f7xx_hal_spi.o(i.HAL_SPI_TransmitReceive_DMA) refers to stm32f7xx_hal_spi.o(i._ZN41_INTERNAL_19_stm32f7xx_hal_spi_c_5e7b22bd22SPI_DMAHalfReceiveCpltEP19__DMA_HandleTypeDef) for [local to stm32f7xx_hal_spi_c]::SPI_DMAHalfReceiveCplt(__DMA_HandleTypeDef*)
    stm32f7xx_hal_spi.o(i.HAL_SPI_TransmitReceive_DMA) refers to stm32f7xx_hal_spi.o(i._ZN41_INTERNAL_19_stm32f7xx_hal_spi_c_5e7b22bd18SPI_DMAReceiveCpltEP19__DMA_HandleTypeDef) for [local to stm32f7xx_hal_spi_c]::SPI_DMAReceiveCplt(__DMA_HandleTypeDef*)
    stm32f7xx_hal_spi.o(i.HAL_SPI_TransmitReceive_DMA) refers to stm32f7xx_hal_spi.o(i._ZN41_INTERNAL_19_stm32f7xx_hal_spi_c_5e7b22bd30SPI_DMAHalfTransmitReceiveCpltEP19__DMA_HandleTypeDef) for [local to stm32f7xx_hal_spi_c]::SPI_DMAHalfTransmitReceiveCplt(__DMA_HandleTypeDef*)
    stm32f7xx_hal_spi.o(i.HAL_SPI_TransmitReceive_DMA) refers to stm32f7xx_hal_spi.o(i._ZN41_INTERNAL_19_stm32f7xx_hal_spi_c_5e7b22bd26SPI_DMATransmitReceiveCpltEP19__DMA_HandleTypeDef) for [local to stm32f7xx_hal_spi_c]::SPI_DMATransmitReceiveCplt(__DMA_HandleTypeDef*)
    stm32f7xx_hal_spi.o(i.HAL_SPI_TransmitReceive_DMA) refers to stm32f7xx_hal_spi.o(i._ZN41_INTERNAL_19_stm32f7xx_hal_spi_c_5e7b22bd12SPI_DMAErrorEP19__DMA_HandleTypeDef) for [local to stm32f7xx_hal_spi_c]::SPI_DMAError(__DMA_HandleTypeDef*)
    stm32f7xx_hal_spi.o(i.HAL_SPI_TransmitReceive_IT) refers to stm32f7xx_hal_spi.o(i._ZN41_INTERNAL_19_stm32f7xx_hal_spi_c_5e7b22bd21SPI_2linesRxISR_16BITEP19__SPI_HandleTypeDef) for [local to stm32f7xx_hal_spi_c]::SPI_2linesRxISR_16BIT(__SPI_HandleTypeDef*)
    stm32f7xx_hal_spi.o(i.HAL_SPI_TransmitReceive_IT) refers to stm32f7xx_hal_spi.o(i._ZN41_INTERNAL_19_stm32f7xx_hal_spi_c_5e7b22bd21SPI_2linesTxISR_16BITEP19__SPI_HandleTypeDef) for [local to stm32f7xx_hal_spi_c]::SPI_2linesTxISR_16BIT(__SPI_HandleTypeDef*)
    stm32f7xx_hal_spi.o(i.HAL_SPI_TransmitReceive_IT) refers to stm32f7xx_hal_spi.o(i._ZN41_INTERNAL_19_stm32f7xx_hal_spi_c_5e7b22bd20SPI_2linesRxISR_8BITEP19__SPI_HandleTypeDef) for [local to stm32f7xx_hal_spi_c]::SPI_2linesRxISR_8BIT(__SPI_HandleTypeDef*)
    stm32f7xx_hal_spi.o(i.HAL_SPI_TransmitReceive_IT) refers to stm32f7xx_hal_spi.o(i._ZN41_INTERNAL_19_stm32f7xx_hal_spi_c_5e7b22bd20SPI_2linesTxISR_8BITEP19__SPI_HandleTypeDef) for [local to stm32f7xx_hal_spi_c]::SPI_2linesTxISR_8BIT(__SPI_HandleTypeDef*)
    stm32f7xx_hal_spi.o(i.HAL_SPI_Transmit_DMA) refers to stm32f7xx_hal_dma.o(i.HAL_DMA_Start_IT) for HAL_DMA_Start_IT
    stm32f7xx_hal_spi.o(i.HAL_SPI_Transmit_DMA) refers to stm32f7xx_hal_spi.o(i._ZN41_INTERNAL_19_stm32f7xx_hal_spi_c_5e7b22bd23SPI_DMAHalfTransmitCpltEP19__DMA_HandleTypeDef) for [local to stm32f7xx_hal_spi_c]::SPI_DMAHalfTransmitCplt(__DMA_HandleTypeDef*)
    stm32f7xx_hal_spi.o(i.HAL_SPI_Transmit_DMA) refers to stm32f7xx_hal_spi.o(i._ZN41_INTERNAL_19_stm32f7xx_hal_spi_c_5e7b22bd19SPI_DMATransmitCpltEP19__DMA_HandleTypeDef) for [local to stm32f7xx_hal_spi_c]::SPI_DMATransmitCplt(__DMA_HandleTypeDef*)
    stm32f7xx_hal_spi.o(i.HAL_SPI_Transmit_DMA) refers to stm32f7xx_hal_spi.o(i._ZN41_INTERNAL_19_stm32f7xx_hal_spi_c_5e7b22bd12SPI_DMAErrorEP19__DMA_HandleTypeDef) for [local to stm32f7xx_hal_spi_c]::SPI_DMAError(__DMA_HandleTypeDef*)
    stm32f7xx_hal_spi.o(i.HAL_SPI_Transmit_IT) refers to stm32f7xx_hal_spi.o(i._ZN41_INTERNAL_19_stm32f7xx_hal_spi_c_5e7b22bd15SPI_TxISR_16BITEP19__SPI_HandleTypeDef) for [local to stm32f7xx_hal_spi_c]::SPI_TxISR_16BIT(__SPI_HandleTypeDef*)
    stm32f7xx_hal_spi.o(i.HAL_SPI_Transmit_IT) refers to stm32f7xx_hal_spi.o(i._ZN41_INTERNAL_19_stm32f7xx_hal_spi_c_5e7b22bd14SPI_TxISR_8BITEP19__SPI_HandleTypeDef) for [local to stm32f7xx_hal_spi_c]::SPI_TxISR_8BIT(__SPI_HandleTypeDef*)
    stm32f7xx_hal_spi.o(i._ZN41_INTERNAL_19_stm32f7xx_hal_spi_c_5e7b22bd12SPI_DMAErrorEP19__DMA_HandleTypeDef) refers to stm32f7xx_hal_spi.o(i.HAL_SPI_ErrorCallback) for HAL_SPI_ErrorCallback
    stm32f7xx_hal_spi.o(i._ZN41_INTERNAL_19_stm32f7xx_hal_spi_c_5e7b22bd14SPI_RxISR_8BITEP19__SPI_HandleTypeDef) refers to stm32f7xx_hal_spi.o(i._ZN41_INTERNAL_19_stm32f7xx_hal_spi_c_5e7b22bd15SPI_CloseRx_ISREP19__SPI_HandleTypeDef) for [local to stm32f7xx_hal_spi_c]::SPI_CloseRx_ISR(__SPI_HandleTypeDef*)
    stm32f7xx_hal_spi.o(i._ZN41_INTERNAL_19_stm32f7xx_hal_spi_c_5e7b22bd14SPI_RxISR_8BITEP19__SPI_HandleTypeDef) refers to stm32f7xx_hal_spi.o(i._ZN41_INTERNAL_19_stm32f7xx_hal_spi_c_5e7b22bd17SPI_RxISR_8BITCRCEP19__SPI_HandleTypeDef) for [local to stm32f7xx_hal_spi_c]::SPI_RxISR_8BITCRC(__SPI_HandleTypeDef*)
    stm32f7xx_hal_spi.o(i._ZN41_INTERNAL_19_stm32f7xx_hal_spi_c_5e7b22bd14SPI_TxISR_8BITEP19__SPI_HandleTypeDef) refers to stm32f7xx_hal_spi.o(i._ZN41_INTERNAL_19_stm32f7xx_hal_spi_c_5e7b22bd15SPI_CloseTx_ISREP19__SPI_HandleTypeDef) for [local to stm32f7xx_hal_spi_c]::SPI_CloseTx_ISR(__SPI_HandleTypeDef*)
    stm32f7xx_hal_spi.o(i._ZN41_INTERNAL_19_stm32f7xx_hal_spi_c_5e7b22bd15SPI_CloseRx_ISREP19__SPI_HandleTypeDef) refers to stm32f7xx_hal_spi.o(i._ZN41_INTERNAL_19_stm32f7xx_hal_spi_c_5e7b22bd20SPI_EndRxTransactionEP19__SPI_HandleTypeDefj) for [local to stm32f7xx_hal_spi_c]::SPI_EndRxTransaction(__SPI_HandleTypeDef*, unsigned)
    stm32f7xx_hal_spi.o(i._ZN41_INTERNAL_19_stm32f7xx_hal_spi_c_5e7b22bd15SPI_CloseRx_ISREP19__SPI_HandleTypeDef) refers to stm32f7xx_hal_spi.o(i.HAL_SPI_ErrorCallback) for HAL_SPI_ErrorCallback
    stm32f7xx_hal_spi.o(i._ZN41_INTERNAL_19_stm32f7xx_hal_spi_c_5e7b22bd15SPI_CloseRx_ISREP19__SPI_HandleTypeDef) refers to stm32f7xx_hal_spi.o(i.HAL_SPI_RxCpltCallback) for HAL_SPI_RxCpltCallback
    stm32f7xx_hal_spi.o(i._ZN41_INTERNAL_19_stm32f7xx_hal_spi_c_5e7b22bd15SPI_CloseTx_ISREP19__SPI_HandleTypeDef) refers to stm32f7xx_hal_spi.o(i.HAL_SPI_ErrorCallback) for HAL_SPI_ErrorCallback
    stm32f7xx_hal_spi.o(i._ZN41_INTERNAL_19_stm32f7xx_hal_spi_c_5e7b22bd15SPI_CloseTx_ISREP19__SPI_HandleTypeDef) refers to stm32f7xx_hal_spi.o(i.HAL_SPI_TxCpltCallback) for HAL_SPI_TxCpltCallback
    stm32f7xx_hal_spi.o(i._ZN41_INTERNAL_19_stm32f7xx_hal_spi_c_5e7b22bd15SPI_RxISR_16BITEP19__SPI_HandleTypeDef) refers to stm32f7xx_hal_spi.o(i._ZN41_INTERNAL_19_stm32f7xx_hal_spi_c_5e7b22bd15SPI_CloseRx_ISREP19__SPI_HandleTypeDef) for [local to stm32f7xx_hal_spi_c]::SPI_CloseRx_ISR(__SPI_HandleTypeDef*)
    stm32f7xx_hal_spi.o(i._ZN41_INTERNAL_19_stm32f7xx_hal_spi_c_5e7b22bd15SPI_RxISR_16BITEP19__SPI_HandleTypeDef) refers to stm32f7xx_hal_spi.o(i._ZN41_INTERNAL_19_stm32f7xx_hal_spi_c_5e7b22bd18SPI_RxISR_16BITCRCEP19__SPI_HandleTypeDef) for [local to stm32f7xx_hal_spi_c]::SPI_RxISR_16BITCRC(__SPI_HandleTypeDef*)
    stm32f7xx_hal_spi.o(i._ZN41_INTERNAL_19_stm32f7xx_hal_spi_c_5e7b22bd15SPI_TxISR_16BITEP19__SPI_HandleTypeDef) refers to stm32f7xx_hal_spi.o(i._ZN41_INTERNAL_19_stm32f7xx_hal_spi_c_5e7b22bd15SPI_CloseTx_ISREP19__SPI_HandleTypeDef) for [local to stm32f7xx_hal_spi_c]::SPI_CloseTx_ISR(__SPI_HandleTypeDef*)
    stm32f7xx_hal_spi.o(i._ZN41_INTERNAL_19_stm32f7xx_hal_spi_c_5e7b22bd17SPI_CloseRxTx_ISREP19__SPI_HandleTypeDef) refers to stm32f7xx_hal_spi.o(i.HAL_SPI_ErrorCallback) for HAL_SPI_ErrorCallback
    stm32f7xx_hal_spi.o(i._ZN41_INTERNAL_19_stm32f7xx_hal_spi_c_5e7b22bd17SPI_CloseRxTx_ISREP19__SPI_HandleTypeDef) refers to stm32f7xx_hal_spi.o(i.HAL_SPI_RxCpltCallback) for HAL_SPI_RxCpltCallback
    stm32f7xx_hal_spi.o(i._ZN41_INTERNAL_19_stm32f7xx_hal_spi_c_5e7b22bd17SPI_CloseRxTx_ISREP19__SPI_HandleTypeDef) refers to stm32f7xx_hal_spi.o(i.HAL_SPI_TxRxCpltCallback) for HAL_SPI_TxRxCpltCallback
    stm32f7xx_hal_spi.o(i._ZN41_INTERNAL_19_stm32f7xx_hal_spi_c_5e7b22bd17SPI_RxISR_8BITCRCEP19__SPI_HandleTypeDef) refers to stm32f7xx_hal_spi.o(i._ZN41_INTERNAL_19_stm32f7xx_hal_spi_c_5e7b22bd15SPI_CloseRx_ISREP19__SPI_HandleTypeDef) for [local to stm32f7xx_hal_spi_c]::SPI_CloseRx_ISR(__SPI_HandleTypeDef*)
    stm32f7xx_hal_spi.o(i._ZN41_INTERNAL_19_stm32f7xx_hal_spi_c_5e7b22bd18SPI_DMAReceiveCpltEP19__DMA_HandleTypeDef) refers to stm32f7xx_hal_spi.o(i._ZN41_INTERNAL_19_stm32f7xx_hal_spi_c_5e7b22bd29SPI_WaitFlagStateUntilTimeoutEP19__SPI_HandleTypeDefjjj) for [local to stm32f7xx_hal_spi_c]::SPI_WaitFlagStateUntilTimeout(__SPI_HandleTypeDef*, unsigned, unsigned, unsigned)
    stm32f7xx_hal_spi.o(i._ZN41_INTERNAL_19_stm32f7xx_hal_spi_c_5e7b22bd18SPI_DMAReceiveCpltEP19__DMA_HandleTypeDef) refers to stm32f7xx_hal_spi.o(i._ZN41_INTERNAL_19_stm32f7xx_hal_spi_c_5e7b22bd20SPI_EndRxTransactionEP19__SPI_HandleTypeDefj) for [local to stm32f7xx_hal_spi_c]::SPI_EndRxTransaction(__SPI_HandleTypeDef*, unsigned)
    stm32f7xx_hal_spi.o(i._ZN41_INTERNAL_19_stm32f7xx_hal_spi_c_5e7b22bd18SPI_DMAReceiveCpltEP19__DMA_HandleTypeDef) refers to stm32f7xx_hal_spi.o(i.HAL_SPI_RxCpltCallback) for HAL_SPI_RxCpltCallback
    stm32f7xx_hal_spi.o(i._ZN41_INTERNAL_19_stm32f7xx_hal_spi_c_5e7b22bd18SPI_DMAReceiveCpltEP19__DMA_HandleTypeDef) refers to stm32f7xx_hal_spi.o(i.HAL_SPI_ErrorCallback) for HAL_SPI_ErrorCallback
    stm32f7xx_hal_spi.o(i._ZN41_INTERNAL_19_stm32f7xx_hal_spi_c_5e7b22bd18SPI_RxISR_16BITCRCEP19__SPI_HandleTypeDef) refers to stm32f7xx_hal_spi.o(i._ZN41_INTERNAL_19_stm32f7xx_hal_spi_c_5e7b22bd15SPI_CloseRx_ISREP19__SPI_HandleTypeDef) for [local to stm32f7xx_hal_spi_c]::SPI_CloseRx_ISR(__SPI_HandleTypeDef*)
    stm32f7xx_hal_spi.o(i._ZN41_INTERNAL_19_stm32f7xx_hal_spi_c_5e7b22bd19SPI_DMATransmitCpltEP19__DMA_HandleTypeDef) refers to stm32f7xx_hal_spi.o(i.HAL_SPI_ErrorCallback) for HAL_SPI_ErrorCallback
    stm32f7xx_hal_spi.o(i._ZN41_INTERNAL_19_stm32f7xx_hal_spi_c_5e7b22bd19SPI_DMATransmitCpltEP19__DMA_HandleTypeDef) refers to stm32f7xx_hal_spi.o(i.HAL_SPI_TxCpltCallback) for HAL_SPI_TxCpltCallback
    stm32f7xx_hal_spi.o(i._ZN41_INTERNAL_19_stm32f7xx_hal_spi_c_5e7b22bd20SPI_2linesRxISR_8BITEP19__SPI_HandleTypeDef) refers to stm32f7xx_hal_spi.o(i._ZN41_INTERNAL_19_stm32f7xx_hal_spi_c_5e7b22bd17SPI_CloseRxTx_ISREP19__SPI_HandleTypeDef) for [local to stm32f7xx_hal_spi_c]::SPI_CloseRxTx_ISR(__SPI_HandleTypeDef*)
    stm32f7xx_hal_spi.o(i._ZN41_INTERNAL_19_stm32f7xx_hal_spi_c_5e7b22bd20SPI_2linesRxISR_8BITEP19__SPI_HandleTypeDef) refers to stm32f7xx_hal_spi.o(i._ZN41_INTERNAL_19_stm32f7xx_hal_spi_c_5e7b22bd23SPI_2linesRxISR_8BITCRCEP19__SPI_HandleTypeDef) for [local to stm32f7xx_hal_spi_c]::SPI_2linesRxISR_8BITCRC(__SPI_HandleTypeDef*)
    stm32f7xx_hal_spi.o(i._ZN41_INTERNAL_19_stm32f7xx_hal_spi_c_5e7b22bd20SPI_2linesTxISR_8BITEP19__SPI_HandleTypeDef) refers to stm32f7xx_hal_spi.o(i._ZN41_INTERNAL_19_stm32f7xx_hal_spi_c_5e7b22bd17SPI_CloseRxTx_ISREP19__SPI_HandleTypeDef) for [local to stm32f7xx_hal_spi_c]::SPI_CloseRxTx_ISR(__SPI_HandleTypeDef*)
    stm32f7xx_hal_spi.o(i._ZN41_INTERNAL_19_stm32f7xx_hal_spi_c_5e7b22bd20SPI_EndRxTransactionEP19__SPI_HandleTypeDefj) refers to stm32f7xx_hal_spi.o(i._ZN41_INTERNAL_19_stm32f7xx_hal_spi_c_5e7b22bd29SPI_WaitFlagStateUntilTimeoutEP19__SPI_HandleTypeDefjjj) for [local to stm32f7xx_hal_spi_c]::SPI_WaitFlagStateUntilTimeout(__SPI_HandleTypeDef*, unsigned, unsigned, unsigned)
    stm32f7xx_hal_spi.o(i._ZN41_INTERNAL_19_stm32f7xx_hal_spi_c_5e7b22bd20SPI_EndRxTransactionEP19__SPI_HandleTypeDefj) refers to stm32f7xx_hal_spi.o(i._ZN41_INTERNAL_19_stm32f7xx_hal_spi_c_5e7b22bd29SPI_WaitFifoStateUntilTimeoutEP19__SPI_HandleTypeDefjjj) for [local to stm32f7xx_hal_spi_c]::SPI_WaitFifoStateUntilTimeout(__SPI_HandleTypeDef*, unsigned, unsigned, unsigned)
    stm32f7xx_hal_spi.o(i._ZN41_INTERNAL_19_stm32f7xx_hal_spi_c_5e7b22bd21SPI_2linesRxISR_16BITEP19__SPI_HandleTypeDef) refers to stm32f7xx_hal_spi.o(i._ZN41_INTERNAL_19_stm32f7xx_hal_spi_c_5e7b22bd17SPI_CloseRxTx_ISREP19__SPI_HandleTypeDef) for [local to stm32f7xx_hal_spi_c]::SPI_CloseRxTx_ISR(__SPI_HandleTypeDef*)
    stm32f7xx_hal_spi.o(i._ZN41_INTERNAL_19_stm32f7xx_hal_spi_c_5e7b22bd21SPI_2linesRxISR_16BITEP19__SPI_HandleTypeDef) refers to stm32f7xx_hal_spi.o(i._ZN41_INTERNAL_19_stm32f7xx_hal_spi_c_5e7b22bd24SPI_2linesRxISR_16BITCRCEP19__SPI_HandleTypeDef) for [local to stm32f7xx_hal_spi_c]::SPI_2linesRxISR_16BITCRC(__SPI_HandleTypeDef*)
    stm32f7xx_hal_spi.o(i._ZN41_INTERNAL_19_stm32f7xx_hal_spi_c_5e7b22bd21SPI_2linesTxISR_16BITEP19__SPI_HandleTypeDef) refers to stm32f7xx_hal_spi.o(i._ZN41_INTERNAL_19_stm32f7xx_hal_spi_c_5e7b22bd17SPI_CloseRxTx_ISREP19__SPI_HandleTypeDef) for [local to stm32f7xx_hal_spi_c]::SPI_CloseRxTx_ISR(__SPI_HandleTypeDef*)
    stm32f7xx_hal_spi.o(i._ZN41_INTERNAL_19_stm32f7xx_hal_spi_c_5e7b22bd22SPI_DMAHalfReceiveCpltEP19__DMA_HandleTypeDef) refers to stm32f7xx_hal_spi.o(i.HAL_SPI_RxHalfCpltCallback) for HAL_SPI_RxHalfCpltCallback
    stm32f7xx_hal_spi.o(i._ZN41_INTERNAL_19_stm32f7xx_hal_spi_c_5e7b22bd22SPI_EndRxTxTransactionEP19__SPI_HandleTypeDefj) refers to stm32f7xx_hal_spi.o(i._ZN41_INTERNAL_19_stm32f7xx_hal_spi_c_5e7b22bd29SPI_WaitFifoStateUntilTimeoutEP19__SPI_HandleTypeDefjjj) for [local to stm32f7xx_hal_spi_c]::SPI_WaitFifoStateUntilTimeout(__SPI_HandleTypeDef*, unsigned, unsigned, unsigned)
    stm32f7xx_hal_spi.o(i._ZN41_INTERNAL_19_stm32f7xx_hal_spi_c_5e7b22bd22SPI_EndRxTxTransactionEP19__SPI_HandleTypeDefj) refers to stm32f7xx_hal_spi.o(i._ZN41_INTERNAL_19_stm32f7xx_hal_spi_c_5e7b22bd29SPI_WaitFlagStateUntilTimeoutEP19__SPI_HandleTypeDefjjj) for [local to stm32f7xx_hal_spi_c]::SPI_WaitFlagStateUntilTimeout(__SPI_HandleTypeDef*, unsigned, unsigned, unsigned)
    stm32f7xx_hal_spi.o(i._ZN41_INTERNAL_19_stm32f7xx_hal_spi_c_5e7b22bd23SPI_2linesRxISR_8BITCRCEP19__SPI_HandleTypeDef) refers to stm32f7xx_hal_spi.o(i._ZN41_INTERNAL_19_stm32f7xx_hal_spi_c_5e7b22bd17SPI_CloseRxTx_ISREP19__SPI_HandleTypeDef) for [local to stm32f7xx_hal_spi_c]::SPI_CloseRxTx_ISR(__SPI_HandleTypeDef*)
    stm32f7xx_hal_spi.o(i._ZN41_INTERNAL_19_stm32f7xx_hal_spi_c_5e7b22bd23SPI_DMAHalfTransmitCpltEP19__DMA_HandleTypeDef) refers to stm32f7xx_hal_spi.o(i.HAL_SPI_TxHalfCpltCallback) for HAL_SPI_TxHalfCpltCallback
    stm32f7xx_hal_spi.o(i._ZN41_INTERNAL_19_stm32f7xx_hal_spi_c_5e7b22bd24SPI_2linesRxISR_16BITCRCEP19__SPI_HandleTypeDef) refers to stm32f7xx_hal_spi.o(i._ZN41_INTERNAL_19_stm32f7xx_hal_spi_c_5e7b22bd17SPI_CloseRxTx_ISREP19__SPI_HandleTypeDef) for [local to stm32f7xx_hal_spi_c]::SPI_CloseRxTx_ISR(__SPI_HandleTypeDef*)
    stm32f7xx_hal_spi.o(i._ZN41_INTERNAL_19_stm32f7xx_hal_spi_c_5e7b22bd26SPI_DMATransmitReceiveCpltEP19__DMA_HandleTypeDef) refers to stm32f7xx_hal_spi.o(i._ZN41_INTERNAL_19_stm32f7xx_hal_spi_c_5e7b22bd29SPI_WaitFifoStateUntilTimeoutEP19__SPI_HandleTypeDefjjj) for [local to stm32f7xx_hal_spi_c]::SPI_WaitFifoStateUntilTimeout(__SPI_HandleTypeDef*, unsigned, unsigned, unsigned)
    stm32f7xx_hal_spi.o(i._ZN41_INTERNAL_19_stm32f7xx_hal_spi_c_5e7b22bd26SPI_DMATransmitReceiveCpltEP19__DMA_HandleTypeDef) refers to stm32f7xx_hal_spi.o(i._ZN41_INTERNAL_19_stm32f7xx_hal_spi_c_5e7b22bd22SPI_EndRxTxTransactionEP19__SPI_HandleTypeDefj) for [local to stm32f7xx_hal_spi_c]::SPI_EndRxTxTransaction(__SPI_HandleTypeDef*, unsigned)
    stm32f7xx_hal_spi.o(i._ZN41_INTERNAL_19_stm32f7xx_hal_spi_c_5e7b22bd26SPI_DMATransmitReceiveCpltEP19__DMA_HandleTypeDef) refers to stm32f7xx_hal_spi.o(i.HAL_SPI_ErrorCallback) for HAL_SPI_ErrorCallback
    stm32f7xx_hal_spi.o(i._ZN41_INTERNAL_19_stm32f7xx_hal_spi_c_5e7b22bd26SPI_DMATransmitReceiveCpltEP19__DMA_HandleTypeDef) refers to stm32f7xx_hal_spi.o(i.HAL_SPI_TxRxCpltCallback) for HAL_SPI_TxRxCpltCallback
    stm32f7xx_hal_spi.o(i._ZN41_INTERNAL_19_stm32f7xx_hal_spi_c_5e7b22bd29SPI_WaitFifoStateUntilTimeoutEP19__SPI_HandleTypeDefjjj) refers to stm32f7xx_hal.o(i.HAL_GetTick) for HAL_GetTick
    stm32f7xx_hal_spi.o(i._ZN41_INTERNAL_19_stm32f7xx_hal_spi_c_5e7b22bd29SPI_WaitFlagStateUntilTimeoutEP19__SPI_HandleTypeDefjjj) refers to stm32f7xx_hal.o(i.HAL_GetTick) for HAL_GetTick
    stm32f7xx_hal_spi.o(i._ZN41_INTERNAL_19_stm32f7xx_hal_spi_c_5e7b22bd30SPI_DMAHalfTransmitReceiveCpltEP19__DMA_HandleTypeDef) refers to stm32f7xx_hal_spi.o(i.HAL_SPI_TxRxHalfCpltCallback) for HAL_SPI_TxRxHalfCpltCallback
    stm32f7xx_hal_spi.o(.ARM.exidx) refers to stm32f7xx_hal_spi.o(i.HAL_SPI_MspInit) for i.HAL_SPI_MspInit
    stm32f7xx_hal_spi.o(.ARM.exidx) refers to stm32f7xx_hal_spi.o(i.HAL_SPI_Init) for i.HAL_SPI_Init
    stm32f7xx_hal_spi.o(.ARM.exidx) refers to stm32f7xx_hal_spi.o(i.HAL_SPI_MspDeInit) for i.HAL_SPI_MspDeInit
    stm32f7xx_hal_spi.o(.ARM.exidx) refers to stm32f7xx_hal_spi.o(i._ZN41_INTERNAL_19_stm32f7xx_hal_spi_c_5e7b22bd29SPI_WaitFifoStateUntilTimeoutEP19__SPI_HandleTypeDefjjj) for i._ZN41_INTERNAL_19_stm32f7xx_hal_spi_c_5e7b22bd29SPI_WaitFifoStateUntilTimeoutEP19__SPI_HandleTypeDefjjj
    stm32f7xx_hal_spi.o(.ARM.exidx) refers to stm32f7xx_hal_spi.o(i._ZN41_INTERNAL_19_stm32f7xx_hal_spi_c_5e7b22bd29SPI_WaitFlagStateUntilTimeoutEP19__SPI_HandleTypeDefjjj) for i._ZN41_INTERNAL_19_stm32f7xx_hal_spi_c_5e7b22bd29SPI_WaitFlagStateUntilTimeoutEP19__SPI_HandleTypeDefjjj
    stm32f7xx_hal_spi.o(.ARM.exidx) refers to stm32f7xx_hal_spi.o(i.HAL_SPI_DeInit) for i.HAL_SPI_DeInit
    stm32f7xx_hal_spi.o(.ARM.exidx) refers to stm32f7xx_hal_spi.o(i._ZN41_INTERNAL_19_stm32f7xx_hal_spi_c_5e7b22bd22SPI_EndRxTxTransactionEP19__SPI_HandleTypeDefj) for i._ZN41_INTERNAL_19_stm32f7xx_hal_spi_c_5e7b22bd22SPI_EndRxTxTransactionEP19__SPI_HandleTypeDefj
    stm32f7xx_hal_spi.o(.ARM.exidx) refers to stm32f7xx_hal_spi.o(i.HAL_SPI_Transmit) for i.HAL_SPI_Transmit
    stm32f7xx_hal_spi.o(.ARM.exidx) refers to stm32f7xx_hal_spi.o(i._ZN41_INTERNAL_19_stm32f7xx_hal_spi_c_5e7b22bd20SPI_EndRxTransactionEP19__SPI_HandleTypeDefj) for i._ZN41_INTERNAL_19_stm32f7xx_hal_spi_c_5e7b22bd20SPI_EndRxTransactionEP19__SPI_HandleTypeDefj
    stm32f7xx_hal_spi.o(.ARM.exidx) refers to stm32f7xx_hal_spi.o(i.HAL_SPI_TransmitReceive) for i.HAL_SPI_TransmitReceive
    stm32f7xx_hal_spi.o(.ARM.exidx) refers to stm32f7xx_hal_spi.o(i.HAL_SPI_Receive) for i.HAL_SPI_Receive
    stm32f7xx_hal_spi.o(.ARM.exidx) refers to stm32f7xx_hal_spi.o(i.HAL_SPI_TxCpltCallback) for i.HAL_SPI_TxCpltCallback
    stm32f7xx_hal_spi.o(.ARM.exidx) refers to stm32f7xx_hal_spi.o(i.HAL_SPI_ErrorCallback) for i.HAL_SPI_ErrorCallback
    stm32f7xx_hal_spi.o(.ARM.exidx) refers to stm32f7xx_hal_spi.o(i._ZN41_INTERNAL_19_stm32f7xx_hal_spi_c_5e7b22bd15SPI_CloseTx_ISREP19__SPI_HandleTypeDef) for i._ZN41_INTERNAL_19_stm32f7xx_hal_spi_c_5e7b22bd15SPI_CloseTx_ISREP19__SPI_HandleTypeDef
    stm32f7xx_hal_spi.o(.ARM.exidx) refers to stm32f7xx_hal_spi.o(i._ZN41_INTERNAL_19_stm32f7xx_hal_spi_c_5e7b22bd14SPI_TxISR_8BITEP19__SPI_HandleTypeDef) for i._ZN41_INTERNAL_19_stm32f7xx_hal_spi_c_5e7b22bd14SPI_TxISR_8BITEP19__SPI_HandleTypeDef
    stm32f7xx_hal_spi.o(.ARM.exidx) refers to stm32f7xx_hal_spi.o(i._ZN41_INTERNAL_19_stm32f7xx_hal_spi_c_5e7b22bd15SPI_TxISR_16BITEP19__SPI_HandleTypeDef) for i._ZN41_INTERNAL_19_stm32f7xx_hal_spi_c_5e7b22bd15SPI_TxISR_16BITEP19__SPI_HandleTypeDef
    stm32f7xx_hal_spi.o(.ARM.exidx) refers to stm32f7xx_hal_spi.o(i.HAL_SPI_Transmit_IT) for i.HAL_SPI_Transmit_IT
    stm32f7xx_hal_spi.o(.ARM.exidx) refers to stm32f7xx_hal_spi.o(i.HAL_SPI_RxCpltCallback) for i.HAL_SPI_RxCpltCallback
    stm32f7xx_hal_spi.o(.ARM.exidx) refers to stm32f7xx_hal_spi.o(i._ZN41_INTERNAL_19_stm32f7xx_hal_spi_c_5e7b22bd15SPI_CloseRx_ISREP19__SPI_HandleTypeDef) for i._ZN41_INTERNAL_19_stm32f7xx_hal_spi_c_5e7b22bd15SPI_CloseRx_ISREP19__SPI_HandleTypeDef
    stm32f7xx_hal_spi.o(.ARM.exidx) refers to stm32f7xx_hal_spi.o(i._ZN41_INTERNAL_19_stm32f7xx_hal_spi_c_5e7b22bd17SPI_RxISR_8BITCRCEP19__SPI_HandleTypeDef) for i._ZN41_INTERNAL_19_stm32f7xx_hal_spi_c_5e7b22bd17SPI_RxISR_8BITCRCEP19__SPI_HandleTypeDef
    stm32f7xx_hal_spi.o(.ARM.exidx) refers to stm32f7xx_hal_spi.o(i._ZN41_INTERNAL_19_stm32f7xx_hal_spi_c_5e7b22bd14SPI_RxISR_8BITEP19__SPI_HandleTypeDef) for i._ZN41_INTERNAL_19_stm32f7xx_hal_spi_c_5e7b22bd14SPI_RxISR_8BITEP19__SPI_HandleTypeDef
    stm32f7xx_hal_spi.o(.ARM.exidx) refers to stm32f7xx_hal_spi.o(i._ZN41_INTERNAL_19_stm32f7xx_hal_spi_c_5e7b22bd18SPI_RxISR_16BITCRCEP19__SPI_HandleTypeDef) for i._ZN41_INTERNAL_19_stm32f7xx_hal_spi_c_5e7b22bd18SPI_RxISR_16BITCRCEP19__SPI_HandleTypeDef
    stm32f7xx_hal_spi.o(.ARM.exidx) refers to stm32f7xx_hal_spi.o(i._ZN41_INTERNAL_19_stm32f7xx_hal_spi_c_5e7b22bd15SPI_RxISR_16BITEP19__SPI_HandleTypeDef) for i._ZN41_INTERNAL_19_stm32f7xx_hal_spi_c_5e7b22bd15SPI_RxISR_16BITEP19__SPI_HandleTypeDef
    stm32f7xx_hal_spi.o(.ARM.exidx) refers to stm32f7xx_hal_spi.o(i.HAL_SPI_TxRxCpltCallback) for i.HAL_SPI_TxRxCpltCallback
    stm32f7xx_hal_spi.o(.ARM.exidx) refers to stm32f7xx_hal_spi.o(i._ZN41_INTERNAL_19_stm32f7xx_hal_spi_c_5e7b22bd17SPI_CloseRxTx_ISREP19__SPI_HandleTypeDef) for i._ZN41_INTERNAL_19_stm32f7xx_hal_spi_c_5e7b22bd17SPI_CloseRxTx_ISREP19__SPI_HandleTypeDef
    stm32f7xx_hal_spi.o(.ARM.exidx) refers to stm32f7xx_hal_spi.o(i._ZN41_INTERNAL_19_stm32f7xx_hal_spi_c_5e7b22bd20SPI_2linesTxISR_8BITEP19__SPI_HandleTypeDef) for i._ZN41_INTERNAL_19_stm32f7xx_hal_spi_c_5e7b22bd20SPI_2linesTxISR_8BITEP19__SPI_HandleTypeDef
    stm32f7xx_hal_spi.o(.ARM.exidx) refers to stm32f7xx_hal_spi.o(i._ZN41_INTERNAL_19_stm32f7xx_hal_spi_c_5e7b22bd23SPI_2linesRxISR_8BITCRCEP19__SPI_HandleTypeDef) for i._ZN41_INTERNAL_19_stm32f7xx_hal_spi_c_5e7b22bd23SPI_2linesRxISR_8BITCRCEP19__SPI_HandleTypeDef
    stm32f7xx_hal_spi.o(.ARM.exidx) refers to stm32f7xx_hal_spi.o(i._ZN41_INTERNAL_19_stm32f7xx_hal_spi_c_5e7b22bd20SPI_2linesRxISR_8BITEP19__SPI_HandleTypeDef) for i._ZN41_INTERNAL_19_stm32f7xx_hal_spi_c_5e7b22bd20SPI_2linesRxISR_8BITEP19__SPI_HandleTypeDef
    stm32f7xx_hal_spi.o(.ARM.exidx) refers to stm32f7xx_hal_spi.o(i._ZN41_INTERNAL_19_stm32f7xx_hal_spi_c_5e7b22bd21SPI_2linesTxISR_16BITEP19__SPI_HandleTypeDef) for i._ZN41_INTERNAL_19_stm32f7xx_hal_spi_c_5e7b22bd21SPI_2linesTxISR_16BITEP19__SPI_HandleTypeDef
    stm32f7xx_hal_spi.o(.ARM.exidx) refers to stm32f7xx_hal_spi.o(i._ZN41_INTERNAL_19_stm32f7xx_hal_spi_c_5e7b22bd24SPI_2linesRxISR_16BITCRCEP19__SPI_HandleTypeDef) for i._ZN41_INTERNAL_19_stm32f7xx_hal_spi_c_5e7b22bd24SPI_2linesRxISR_16BITCRCEP19__SPI_HandleTypeDef
    stm32f7xx_hal_spi.o(.ARM.exidx) refers to stm32f7xx_hal_spi.o(i._ZN41_INTERNAL_19_stm32f7xx_hal_spi_c_5e7b22bd21SPI_2linesRxISR_16BITEP19__SPI_HandleTypeDef) for i._ZN41_INTERNAL_19_stm32f7xx_hal_spi_c_5e7b22bd21SPI_2linesRxISR_16BITEP19__SPI_HandleTypeDef
    stm32f7xx_hal_spi.o(.ARM.exidx) refers to stm32f7xx_hal_spi.o(i.HAL_SPI_TransmitReceive_IT) for i.HAL_SPI_TransmitReceive_IT
    stm32f7xx_hal_spi.o(.ARM.exidx) refers to stm32f7xx_hal_spi.o(i.HAL_SPI_Receive_IT) for i.HAL_SPI_Receive_IT
    stm32f7xx_hal_spi.o(.ARM.exidx) refers to stm32f7xx_hal_spi.o(i._ZN41_INTERNAL_19_stm32f7xx_hal_spi_c_5e7b22bd12SPI_DMAErrorEP19__DMA_HandleTypeDef) for i._ZN41_INTERNAL_19_stm32f7xx_hal_spi_c_5e7b22bd12SPI_DMAErrorEP19__DMA_HandleTypeDef
    stm32f7xx_hal_spi.o(.ARM.exidx) refers to stm32f7xx_hal_spi.o(i._ZN41_INTERNAL_19_stm32f7xx_hal_spi_c_5e7b22bd19SPI_DMATransmitCpltEP19__DMA_HandleTypeDef) for i._ZN41_INTERNAL_19_stm32f7xx_hal_spi_c_5e7b22bd19SPI_DMATransmitCpltEP19__DMA_HandleTypeDef
    stm32f7xx_hal_spi.o(.ARM.exidx) refers to stm32f7xx_hal_spi.o(i.HAL_SPI_TxHalfCpltCallback) for i.HAL_SPI_TxHalfCpltCallback
    stm32f7xx_hal_spi.o(.ARM.exidx) refers to stm32f7xx_hal_spi.o(i._ZN41_INTERNAL_19_stm32f7xx_hal_spi_c_5e7b22bd23SPI_DMAHalfTransmitCpltEP19__DMA_HandleTypeDef) for i._ZN41_INTERNAL_19_stm32f7xx_hal_spi_c_5e7b22bd23SPI_DMAHalfTransmitCpltEP19__DMA_HandleTypeDef
    stm32f7xx_hal_spi.o(.ARM.exidx) refers to stm32f7xx_hal_spi.o(i.HAL_SPI_Transmit_DMA) for i.HAL_SPI_Transmit_DMA
    stm32f7xx_hal_spi.o(.ARM.exidx) refers to stm32f7xx_hal_spi.o(i._ZN41_INTERNAL_19_stm32f7xx_hal_spi_c_5e7b22bd18SPI_DMAReceiveCpltEP19__DMA_HandleTypeDef) for i._ZN41_INTERNAL_19_stm32f7xx_hal_spi_c_5e7b22bd18SPI_DMAReceiveCpltEP19__DMA_HandleTypeDef
    stm32f7xx_hal_spi.o(.ARM.exidx) refers to stm32f7xx_hal_spi.o(i.HAL_SPI_RxHalfCpltCallback) for i.HAL_SPI_RxHalfCpltCallback
    stm32f7xx_hal_spi.o(.ARM.exidx) refers to stm32f7xx_hal_spi.o(i._ZN41_INTERNAL_19_stm32f7xx_hal_spi_c_5e7b22bd22SPI_DMAHalfReceiveCpltEP19__DMA_HandleTypeDef) for i._ZN41_INTERNAL_19_stm32f7xx_hal_spi_c_5e7b22bd22SPI_DMAHalfReceiveCpltEP19__DMA_HandleTypeDef
    stm32f7xx_hal_spi.o(.ARM.exidx) refers to stm32f7xx_hal_spi.o(i._ZN41_INTERNAL_19_stm32f7xx_hal_spi_c_5e7b22bd26SPI_DMATransmitReceiveCpltEP19__DMA_HandleTypeDef) for i._ZN41_INTERNAL_19_stm32f7xx_hal_spi_c_5e7b22bd26SPI_DMATransmitReceiveCpltEP19__DMA_HandleTypeDef
    stm32f7xx_hal_spi.o(.ARM.exidx) refers to stm32f7xx_hal_spi.o(i.HAL_SPI_TxRxHalfCpltCallback) for i.HAL_SPI_TxRxHalfCpltCallback
    stm32f7xx_hal_spi.o(.ARM.exidx) refers to stm32f7xx_hal_spi.o(i._ZN41_INTERNAL_19_stm32f7xx_hal_spi_c_5e7b22bd30SPI_DMAHalfTransmitReceiveCpltEP19__DMA_HandleTypeDef) for i._ZN41_INTERNAL_19_stm32f7xx_hal_spi_c_5e7b22bd30SPI_DMAHalfTransmitReceiveCpltEP19__DMA_HandleTypeDef
    stm32f7xx_hal_spi.o(.ARM.exidx) refers to stm32f7xx_hal_spi.o(i.HAL_SPI_TransmitReceive_DMA) for i.HAL_SPI_TransmitReceive_DMA
    stm32f7xx_hal_spi.o(.ARM.exidx) refers to stm32f7xx_hal_spi.o(i.HAL_SPI_Receive_DMA) for i.HAL_SPI_Receive_DMA
    stm32f7xx_hal_spi.o(.ARM.exidx) refers to stm32f7xx_hal_spi.o(i.HAL_SPI_DMAPause) for i.HAL_SPI_DMAPause
    stm32f7xx_hal_spi.o(.ARM.exidx) refers to stm32f7xx_hal_spi.o(i.HAL_SPI_DMAResume) for i.HAL_SPI_DMAResume
    stm32f7xx_hal_spi.o(.ARM.exidx) refers to stm32f7xx_hal_spi.o(i.HAL_SPI_DMAStop) for i.HAL_SPI_DMAStop
    stm32f7xx_hal_spi.o(.ARM.exidx) refers to stm32f7xx_hal_spi.o(i.HAL_SPI_IRQHandler) for i.HAL_SPI_IRQHandler
    stm32f7xx_hal_spi.o(.ARM.exidx) refers to stm32f7xx_hal_spi.o(i.HAL_SPI_GetState) for i.HAL_SPI_GetState
    stm32f7xx_hal_spi.o(.ARM.exidx) refers to stm32f7xx_hal_spi.o(i.HAL_SPI_GetError) for i.HAL_SPI_GetError
    stm32f7xx_hal_dma.o(i.HAL_DMA_Abort) refers to stm32f7xx_hal.o(i.HAL_GetTick) for HAL_GetTick
    stm32f7xx_hal_dma.o(i.HAL_DMA_DeInit) refers to stm32f7xx_hal_dma.o(i._ZN41_INTERNAL_19_stm32f7xx_hal_dma_c_c25f65ec23DMA_CalcBaseAndBitshiftEP19__DMA_HandleTypeDef) for [local to stm32f7xx_hal_dma_c]::DMA_CalcBaseAndBitshift(__DMA_HandleTypeDef*)
    stm32f7xx_hal_dma.o(i.HAL_DMA_Init) refers to stm32f7xx_hal_dma.o(i._ZN41_INTERNAL_19_stm32f7xx_hal_dma_c_c25f65ec23DMA_CalcBaseAndBitshiftEP19__DMA_HandleTypeDef) for [local to stm32f7xx_hal_dma_c]::DMA_CalcBaseAndBitshift(__DMA_HandleTypeDef*)
    stm32f7xx_hal_dma.o(i.HAL_DMA_PollForTransfer) refers to stm32f7xx_hal.o(i.HAL_GetTick) for HAL_GetTick
    stm32f7xx_hal_dma.o(i.HAL_DMA_Start) refers to stm32f7xx_hal_dma.o(i._ZN41_INTERNAL_19_stm32f7xx_hal_dma_c_c25f65ec13DMA_SetConfigEP19__DMA_HandleTypeDefjjj) for [local to stm32f7xx_hal_dma_c]::DMA_SetConfig(__DMA_HandleTypeDef*, unsigned, unsigned, unsigned)
    stm32f7xx_hal_dma.o(i.HAL_DMA_Start_IT) refers to stm32f7xx_hal_dma.o(i._ZN41_INTERNAL_19_stm32f7xx_hal_dma_c_c25f65ec13DMA_SetConfigEP19__DMA_HandleTypeDefjjj) for [local to stm32f7xx_hal_dma_c]::DMA_SetConfig(__DMA_HandleTypeDef*, unsigned, unsigned, unsigned)
    stm32f7xx_hal_dma.o(i._ZN41_INTERNAL_19_stm32f7xx_hal_dma_c_c25f65ec23DMA_CalcBaseAndBitshiftEP19__DMA_HandleTypeDef) refers to stm32f7xx_hal_dma.o(.constdata) for [local to stm32f7xx_hal_dma_c]::DMA_CalcBaseAndBitshift(__DMA_HandleTypeDef*)::flagBitshiftOffset
    stm32f7xx_hal_dma.o(.ARM.exidx) refers to stm32f7xx_hal_dma.o(i._ZN41_INTERNAL_19_stm32f7xx_hal_dma_c_c25f65ec13DMA_SetConfigEP19__DMA_HandleTypeDefjjj) for i._ZN41_INTERNAL_19_stm32f7xx_hal_dma_c_c25f65ec13DMA_SetConfigEP19__DMA_HandleTypeDefjjj
    stm32f7xx_hal_dma.o(.ARM.exidx) refers to stm32f7xx_hal_dma.o(i._ZN41_INTERNAL_19_stm32f7xx_hal_dma_c_c25f65ec23DMA_CalcBaseAndBitshiftEP19__DMA_HandleTypeDef) for i._ZN41_INTERNAL_19_stm32f7xx_hal_dma_c_c25f65ec23DMA_CalcBaseAndBitshiftEP19__DMA_HandleTypeDef
    stm32f7xx_hal_dma.o(.ARM.exidx) refers to stm32f7xx_hal_dma.o(i.HAL_DMA_Init) for i.HAL_DMA_Init
    stm32f7xx_hal_dma.o(.ARM.exidx) refers to stm32f7xx_hal_dma.o(i.HAL_DMA_DeInit) for i.HAL_DMA_DeInit
    stm32f7xx_hal_dma.o(.ARM.exidx) refers to stm32f7xx_hal_dma.o(i.HAL_DMA_Start) for i.HAL_DMA_Start
    stm32f7xx_hal_dma.o(.ARM.exidx) refers to stm32f7xx_hal_dma.o(i.HAL_DMA_Start_IT) for i.HAL_DMA_Start_IT
    stm32f7xx_hal_dma.o(.ARM.exidx) refers to stm32f7xx_hal_dma.o(i.HAL_DMA_Abort) for i.HAL_DMA_Abort
    stm32f7xx_hal_dma.o(.ARM.exidx) refers to stm32f7xx_hal_dma.o(i.HAL_DMA_PollForTransfer) for i.HAL_DMA_PollForTransfer
    stm32f7xx_hal_dma.o(.ARM.exidx) refers to stm32f7xx_hal_dma.o(i.HAL_DMA_IRQHandler) for i.HAL_DMA_IRQHandler
    stm32f7xx_hal_dma.o(.ARM.exidx) refers to stm32f7xx_hal_dma.o(i.HAL_DMA_GetState) for i.HAL_DMA_GetState
    stm32f7xx_hal_dma.o(.ARM.exidx) refers to stm32f7xx_hal_dma.o(i.HAL_DMA_GetError) for i.HAL_DMA_GetError
    stm32f7xx_hal_dma_ex.o(i.HAL_DMAEx_MultiBufferStart) refers to stm32f7xx_hal_dma_ex.o(i._ZN44_INTERNAL_22_stm32f7xx_hal_dma_ex_c_af8eecb024DMA_MultiBufferSetConfigEP19__DMA_HandleTypeDefjjj) for [local to stm32f7xx_hal_dma_ex_c]::DMA_MultiBufferSetConfig(__DMA_HandleTypeDef*, unsigned, unsigned, unsigned)
    stm32f7xx_hal_dma_ex.o(i.HAL_DMAEx_MultiBufferStart_IT) refers to stm32f7xx_hal_dma_ex.o(i._ZN44_INTERNAL_22_stm32f7xx_hal_dma_ex_c_af8eecb024DMA_MultiBufferSetConfigEP19__DMA_HandleTypeDefjjj) for [local to stm32f7xx_hal_dma_ex_c]::DMA_MultiBufferSetConfig(__DMA_HandleTypeDef*, unsigned, unsigned, unsigned)
    stm32f7xx_hal_dma_ex.o(.ARM.exidx) refers to stm32f7xx_hal_dma_ex.o(i._ZN44_INTERNAL_22_stm32f7xx_hal_dma_ex_c_af8eecb024DMA_MultiBufferSetConfigEP19__DMA_HandleTypeDefjjj) for i._ZN44_INTERNAL_22_stm32f7xx_hal_dma_ex_c_af8eecb024DMA_MultiBufferSetConfigEP19__DMA_HandleTypeDefjjj
    stm32f7xx_hal_dma_ex.o(.ARM.exidx) refers to stm32f7xx_hal_dma_ex.o(i.HAL_DMAEx_MultiBufferStart) for i.HAL_DMAEx_MultiBufferStart
    stm32f7xx_hal_dma_ex.o(.ARM.exidx) refers to stm32f7xx_hal_dma_ex.o(i.HAL_DMAEx_MultiBufferStart_IT) for i.HAL_DMAEx_MultiBufferStart_IT
    stm32f7xx_hal_dma_ex.o(.ARM.exidx) refers to stm32f7xx_hal_dma_ex.o(i.HAL_DMAEx_ChangeMemory) for i.HAL_DMAEx_ChangeMemory
    stm32f7xx_hal_dma2d.o(i.HAL_DMA2D_Abort) refers to stm32f7xx_hal.o(i.HAL_GetTick) for HAL_GetTick
    stm32f7xx_hal_dma2d.o(i.HAL_DMA2D_BlendingStart) refers to stm32f7xx_hal_dma2d.o(i._ZN43_INTERNAL_21_stm32f7xx_hal_dma2d_c_16a0ba0915DMA2D_SetConfigEP21__DMA2D_HandleTypeDefjjjj) for [local to stm32f7xx_hal_dma2d_c]::DMA2D_SetConfig(__DMA2D_HandleTypeDef*, unsigned, unsigned, unsigned, unsigned)
    stm32f7xx_hal_dma2d.o(i.HAL_DMA2D_BlendingStart_IT) refers to stm32f7xx_hal_dma2d.o(i._ZN43_INTERNAL_21_stm32f7xx_hal_dma2d_c_16a0ba0915DMA2D_SetConfigEP21__DMA2D_HandleTypeDefjjjj) for [local to stm32f7xx_hal_dma2d_c]::DMA2D_SetConfig(__DMA2D_HandleTypeDef*, unsigned, unsigned, unsigned, unsigned)
    stm32f7xx_hal_dma2d.o(i.HAL_DMA2D_DeInit) refers to stm32f7xx_hal_dma2d.o(i.HAL_DMA2D_MspDeInit) for HAL_DMA2D_MspDeInit
    stm32f7xx_hal_dma2d.o(i.HAL_DMA2D_Init) refers to stm32f7xx_hal_dma2d.o(i.HAL_DMA2D_MspInit) for HAL_DMA2D_MspInit
    stm32f7xx_hal_dma2d.o(i.HAL_DMA2D_PollForTransfer) refers to stm32f7xx_hal.o(i.HAL_GetTick) for HAL_GetTick
    stm32f7xx_hal_dma2d.o(i.HAL_DMA2D_Start) refers to stm32f7xx_hal_dma2d.o(i._ZN43_INTERNAL_21_stm32f7xx_hal_dma2d_c_16a0ba0915DMA2D_SetConfigEP21__DMA2D_HandleTypeDefjjjj) for [local to stm32f7xx_hal_dma2d_c]::DMA2D_SetConfig(__DMA2D_HandleTypeDef*, unsigned, unsigned, unsigned, unsigned)
    stm32f7xx_hal_dma2d.o(i.HAL_DMA2D_Start_IT) refers to stm32f7xx_hal_dma2d.o(i._ZN43_INTERNAL_21_stm32f7xx_hal_dma2d_c_16a0ba0915DMA2D_SetConfigEP21__DMA2D_HandleTypeDefjjjj) for [local to stm32f7xx_hal_dma2d_c]::DMA2D_SetConfig(__DMA2D_HandleTypeDef*, unsigned, unsigned, unsigned, unsigned)
    stm32f7xx_hal_dma2d.o(i.HAL_DMA2D_Suspend) refers to stm32f7xx_hal.o(i.HAL_GetTick) for HAL_GetTick
    stm32f7xx_hal_dma2d.o(.ARM.exidx) refers to stm32f7xx_hal_dma2d.o(i.HAL_DMA2D_MspInit) for i.HAL_DMA2D_MspInit
    stm32f7xx_hal_dma2d.o(.ARM.exidx) refers to stm32f7xx_hal_dma2d.o(i.HAL_DMA2D_Init) for i.HAL_DMA2D_Init
    stm32f7xx_hal_dma2d.o(.ARM.exidx) refers to stm32f7xx_hal_dma2d.o(i.HAL_DMA2D_MspDeInit) for i.HAL_DMA2D_MspDeInit
    stm32f7xx_hal_dma2d.o(.ARM.exidx) refers to stm32f7xx_hal_dma2d.o(i.HAL_DMA2D_DeInit) for i.HAL_DMA2D_DeInit
    stm32f7xx_hal_dma2d.o(.ARM.exidx) refers to stm32f7xx_hal_dma2d.o(i._ZN43_INTERNAL_21_stm32f7xx_hal_dma2d_c_16a0ba0915DMA2D_SetConfigEP21__DMA2D_HandleTypeDefjjjj) for i._ZN43_INTERNAL_21_stm32f7xx_hal_dma2d_c_16a0ba0915DMA2D_SetConfigEP21__DMA2D_HandleTypeDefjjjj
    stm32f7xx_hal_dma2d.o(.ARM.exidx) refers to stm32f7xx_hal_dma2d.o(i.HAL_DMA2D_Start) for i.HAL_DMA2D_Start
    stm32f7xx_hal_dma2d.o(.ARM.exidx) refers to stm32f7xx_hal_dma2d.o(i.HAL_DMA2D_Start_IT) for i.HAL_DMA2D_Start_IT
    stm32f7xx_hal_dma2d.o(.ARM.exidx) refers to stm32f7xx_hal_dma2d.o(i.HAL_DMA2D_BlendingStart) for i.HAL_DMA2D_BlendingStart
    stm32f7xx_hal_dma2d.o(.ARM.exidx) refers to stm32f7xx_hal_dma2d.o(i.HAL_DMA2D_BlendingStart_IT) for i.HAL_DMA2D_BlendingStart_IT
    stm32f7xx_hal_dma2d.o(.ARM.exidx) refers to stm32f7xx_hal_dma2d.o(i.HAL_DMA2D_Abort) for i.HAL_DMA2D_Abort
    stm32f7xx_hal_dma2d.o(.ARM.exidx) refers to stm32f7xx_hal_dma2d.o(i.HAL_DMA2D_Suspend) for i.HAL_DMA2D_Suspend
    stm32f7xx_hal_dma2d.o(.ARM.exidx) refers to stm32f7xx_hal_dma2d.o(i.HAL_DMA2D_Resume) for i.HAL_DMA2D_Resume
    stm32f7xx_hal_dma2d.o(.ARM.exidx) refers to stm32f7xx_hal_dma2d.o(i.HAL_DMA2D_PollForTransfer) for i.HAL_DMA2D_PollForTransfer
    stm32f7xx_hal_dma2d.o(.ARM.exidx) refers to stm32f7xx_hal_dma2d.o(i.HAL_DMA2D_IRQHandler) for i.HAL_DMA2D_IRQHandler
    stm32f7xx_hal_dma2d.o(.ARM.exidx) refers to stm32f7xx_hal_dma2d.o(i.HAL_DMA2D_ConfigLayer) for i.HAL_DMA2D_ConfigLayer
    stm32f7xx_hal_dma2d.o(.ARM.exidx) refers to stm32f7xx_hal_dma2d.o(i.HAL_DMA2D_ConfigCLUT) for i.HAL_DMA2D_ConfigCLUT
    stm32f7xx_hal_dma2d.o(.ARM.exidx) refers to stm32f7xx_hal_dma2d.o(i.HAL_DMA2D_EnableCLUT) for i.HAL_DMA2D_EnableCLUT
    stm32f7xx_hal_dma2d.o(.ARM.exidx) refers to stm32f7xx_hal_dma2d.o(i.HAL_DMA2D_DisableCLUT) for i.HAL_DMA2D_DisableCLUT
    stm32f7xx_hal_dma2d.o(.ARM.exidx) refers to stm32f7xx_hal_dma2d.o(i.HAL_DMA2D_ProgramLineEvent) for i.HAL_DMA2D_ProgramLineEvent
    stm32f7xx_hal_dma2d.o(.ARM.exidx) refers to stm32f7xx_hal_dma2d.o(i.HAL_DMA2D_GetState) for i.HAL_DMA2D_GetState
    stm32f7xx_hal_dma2d.o(.ARM.exidx) refers to stm32f7xx_hal_dma2d.o(i.HAL_DMA2D_GetError) for i.HAL_DMA2D_GetError
    main.o(i.main) refers to main.o(i._ZN6DeviceC1Ev) for Device::Device()
    main.o(.ARM.exidx) refers to main.o(i.main) for i.main
    stm32f7xx_it.o(i.SysTick_Handler) refers to stm32f7xx_hal.o(i.HAL_IncTick) for HAL_IncTick
    stm32f7xx_it.o(.ARM.exidx) refers to stm32f7xx_it.o(i.NMI_Handler) for i.NMI_Handler
    stm32f7xx_it.o(.ARM.exidx) refers to stm32f7xx_it.o(i.HardFault_Handler) for i.HardFault_Handler
    stm32f7xx_it.o(.ARM.exidx) refers to stm32f7xx_it.o(i.MemManage_Handler) for i.MemManage_Handler
    stm32f7xx_it.o(.ARM.exidx) refers to stm32f7xx_it.o(i.BusFault_Handler) for i.BusFault_Handler
    stm32f7xx_it.o(.ARM.exidx) refers to stm32f7xx_it.o(i.UsageFault_Handler) for i.UsageFault_Handler
    stm32f7xx_it.o(.ARM.exidx) refers to stm32f7xx_it.o(i.SVC_Handler) for i.SVC_Handler
    stm32f7xx_it.o(.ARM.exidx) refers to stm32f7xx_it.o(i.DebugMon_Handler) for i.DebugMon_Handler
    stm32f7xx_it.o(.ARM.exidx) refers to stm32f7xx_it.o(i.PendSV_Handler) for i.PendSV_Handler
    stm32f7xx_it.o(.ARM.exidx) refers to stm32f7xx_it.o(i.SysTick_Handler) for i.SysTick_Handler
    init.o(i._Z12clock_enablev) refers to init.o(i._Z18SystemClock_Configv) for SystemClock_Config()
    init.o(i._Z17SPI_Enc28j60_Initv) refers to stm32f7xx_hal_spi.o(i.HAL_SPI_Init) for HAL_SPI_Init
    init.o(i._Z17SPI_Enc28j60_Initv) refers to init.o(.bss) for SpiHandle_Enc28j60
    init.o(i._Z18SystemClock_Configv) refers to stm32f7xx_hal_rcc.o(i.HAL_RCC_OscConfig) for HAL_RCC_OscConfig
    init.o(i._Z18SystemClock_Configv) refers to stm32f7xx_hal_pwr_ex.o(i.HAL_PWREx_EnableOverDrive) for HAL_PWREx_EnableOverDrive
    init.o(i._Z18SystemClock_Configv) refers to stm32f7xx_hal_rcc.o(i.HAL_RCC_ClockConfig) for HAL_RCC_ClockConfig
    init.o(i._Z18SystemClock_Configv) refers to stm32f7xx_hal_rcc.o(i.HAL_RCC_GetHCLKFreq) for HAL_RCC_GetHCLKFreq
    init.o(i._Z18SystemClock_Configv) refers to stm32f7xx_hal_cortex.o(i.HAL_SYSTICK_Config) for HAL_SYSTICK_Config
    init.o(i._Z18SystemClock_Configv) refers to stm32f7xx_hal_cortex.o(i.HAL_SYSTICK_CLKSourceConfig) for HAL_SYSTICK_CLKSourceConfig
    init.o(i._Z18SystemClock_Configv) refers to stm32f7xx_hal_cortex.o(i.HAL_NVIC_SetPriority) for HAL_NVIC_SetPriority
    init.o(i._Z9core_initv) refers to stm32f7xx_hal.o(i.HAL_Init) for HAL_Init
    init.o(i._Z9core_initv) refers to init.o(i._ZN29_INTERNAL_8_init_cpp_8c3459f116CPU_CACHE_EnableEv) for [local to init_cpp]::CPU_CACHE_Enable()
    init.o(i._Z9core_initv) refers to init.o(i._ZN29_INTERNAL_8_init_cpp_8c3459f110MPU_ConfigEv) for [local to init_cpp]::MPU_Config()
    init.o(i._Z9gpio_initv) refers to gpio.o(i._Z13gpio_alt_initP12GPIO_TypeDefjjjj) for gpio_alt_init(GPIO_TypeDef*, unsigned, unsigned, unsigned, unsigned)
    init.o(i._Z9gpio_initv) refers to gpio.o(i._Z13gpio_pin_initP12GPIO_TypeDefjjj) for gpio_pin_init(GPIO_TypeDef*, unsigned, unsigned, unsigned)
    init.o(i._ZN29_INTERNAL_8_init_cpp_8c3459f110MPU_ConfigEv) refers to stm32f7xx_hal_cortex.o(i.HAL_MPU_ConfigRegion) for HAL_MPU_ConfigRegion
    init.o(i._ZN29_INTERNAL_8_init_cpp_8c3459f116CPU_CACHE_EnableEv) refers to init.o(i._ZN29_INTERNAL_8_init_cpp_8c3459f116SCB_EnableDCacheEv) for [local to init_cpp]::SCB_EnableDCache()
    init.o(.ARM.exidx) refers to init.o(i._ZN29_INTERNAL_8_init_cpp_8c3459f116CPU_CACHE_EnableEv) for i._ZN29_INTERNAL_8_init_cpp_8c3459f116CPU_CACHE_EnableEv
    init.o(.ARM.exidx) refers to init.o(i._ZN29_INTERNAL_8_init_cpp_8c3459f110MPU_ConfigEv) for i._ZN29_INTERNAL_8_init_cpp_8c3459f110MPU_ConfigEv
    init.o(.ARM.exidx) refers to init.o(i._Z18SystemClock_Configv) for i._Z18SystemClock_Configv
    init.o(.ARM.exidx) refers to init.o(i._Z9core_initv) for i._Z9core_initv
    init.o(.ARM.exidx) refers to init.o(i._Z12clock_enablev) for i._Z12clock_enablev
    init.o(.ARM.exidx) refers to init.o(i._Z9gpio_initv) for i._Z9gpio_initv
    init.o(.ARM.exidx) refers to init.o(i._Z8spi_initv) for i._Z8spi_initv
    init.o(.ARM.exidx) refers to init.o(i._Z17SPI_Enc28j60_Initv) for i._Z17SPI_Enc28j60_Initv
    init.o(.ARM.exidx) refers to init.o(i._ZN29_INTERNAL_8_init_cpp_8c3459f116SCB_EnableDCacheEv) for i._ZN29_INTERNAL_8_init_cpp_8c3459f116SCB_EnableDCacheEv
    device.o(i._Z10__delay_msi) refers to stm32f7xx_hal.o(i.HAL_Delay) for HAL_Delay
    device.o(.ARM.exidx) refers to device.o(i._Z10__delay_nsi) for i._Z10__delay_nsi
    device.o(.ARM.exidx) refers to device.o(i._Z10__delay_msi) for i._Z10__delay_msi
    device.o(.ARM.exidx) refers to device.o(i._ZN11StepMotorAB6HLInitEv) for i._ZN11StepMotorAB6HLInitEv
    device.o(.ARM.exidx) refers to device.o(i._ZN11StepMotorAB8HLDeInitEv) for i._ZN11StepMotorAB8HLDeInitEv
    device.o(.ARM.exidx) refers to device.o(i._ZN11StepMotorAB13setCoilAPhaseEi) for i._ZN11StepMotorAB13setCoilAPhaseEi
    device.o(.ARM.exidx) refers to device.o(i._ZN11StepMotorAB13setCoilBPhaseEi) for i._ZN11StepMotorAB13setCoilBPhaseEi
    gpio.o(i._Z13gpio_alt_initP12GPIO_TypeDefjjjj) refers to stm32f7xx_hal_gpio.o(i.HAL_GPIO_Init) for HAL_GPIO_Init
    gpio.o(i._Z13gpio_alt_initP12GPIO_TypeDefjjjj) refers to gpio.o(.bss) for gpio_alt_init(GPIO_TypeDef*, unsigned, unsigned, unsigned, unsigned)::GPIO_InitStruct
    gpio.o(i._Z13gpio_pin_initP12GPIO_TypeDefjjj) refers to stm32f7xx_hal_gpio.o(i.HAL_GPIO_Init) for HAL_GPIO_Init
    gpio.o(i._Z13gpio_pin_initP12GPIO_TypeDefjjj) refers to gpio.o(.bss) for gpio_pin_init(GPIO_TypeDef*, unsigned, unsigned, unsigned)::GPIO_InitStruct
    gpio.o(.ARM.exidx) refers to gpio.o(i._Z13gpio_pin_initP12GPIO_TypeDefjjj) for i._Z13gpio_pin_initP12GPIO_TypeDefjjj
    gpio.o(.ARM.exidx) refers to gpio.o(i._Z13gpio_alt_initP12GPIO_TypeDefjjjj) for i._Z13gpio_alt_initP12GPIO_TypeDefjjjj
    gpio.o(.ARM.exidx) refers to gpio.o(i._Z13gpio_pin_readP12GPIO_TypeDefj) for i._Z13gpio_pin_readP12GPIO_TypeDefj
    gpio.o(.ARM.exidx) refers to gpio.o(i._Z12gpio_pin_setP12GPIO_TypeDefjb) for i._Z12gpio_pin_setP12GPIO_TypeDefjb
    gpio.o(.ARM.exidx) refers to gpio.o(i._Z12gpio_pin_setP12GPIO_TypeDefj) for i._Z12gpio_pin_setP12GPIO_TypeDefj
    gpio.o(.ARM.exidx) refers to gpio.o(i._Z14gpio_pin_resetP12GPIO_TypeDefj) for i._Z14gpio_pin_resetP12GPIO_TypeDefj
    gpio.o(.ARM.exidx) refers to gpio.o(i._Z13gpio_port_setP12GPIO_TypeDefj) for i._Z13gpio_port_setP12GPIO_TypeDefj
    gpio.o(.ARM.exidx) refers to gpio.o(i._Z15gpio_port_resetP12GPIO_TypeDefj) for i._Z15gpio_port_resetP12GPIO_TypeDefj
    gpio.o(.ARM.exidx) refers to gpio.o(i._Z13gpio_port_outP12GPIO_TypeDefj) for i._Z13gpio_port_outP12GPIO_TypeDefj
    enc28j60.o(i._Z12enc28j60InitPh) refers to enc28j60.o(i._ZN32_INTERNAL_10_enc28j60_c_db74034712enc28j60_cshEv) for [local to enc28j60_c]::enc28j60_csh()
    enc28j60.o(i._Z12enc28j60InitPh) refers to enc28j60.o(i._Z15enc28j60WriteOphhh) for enc28j60WriteOp(unsigned char, unsigned char, unsigned char)
    enc28j60.o(i._Z12enc28j60InitPh) refers to device.o(i._Z10__delay_msi) for __delay_ms(int)
    enc28j60.o(i._Z12enc28j60InitPh) refers to enc28j60.o(i._Z12enc28j60Readh) for enc28j60Read(unsigned char)
    enc28j60.o(i._Z12enc28j60InitPh) refers to enc28j60.o(i._Z13enc28j60Writehh) for enc28j60Write(unsigned char, unsigned char)
    enc28j60.o(i._Z12enc28j60InitPh) refers to enc28j60.o(i._Z16enc28j60PhyWritehj) for enc28j60PhyWrite(unsigned char, unsigned)
    enc28j60.o(i._Z12enc28j60InitPh) refers to enc28j60.o(i._Z15enc28j60SetBankh) for enc28j60SetBank(unsigned char)
    enc28j60.o(i._Z12enc28j60InitPh) refers to enc28j60.o(.data) for NextPacketPtr
    enc28j60.o(i._Z12enc28j60Readh) refers to enc28j60.o(i._Z15enc28j60SetBankh) for enc28j60SetBank(unsigned char)
    enc28j60.o(i._Z12enc28j60Readh) refers to enc28j60.o(i._Z14enc28j60ReadOphh) for enc28j60ReadOp(unsigned char, unsigned char)
    enc28j60.o(i._Z13enc28j60Writehh) refers to enc28j60.o(i._Z15enc28j60SetBankh) for enc28j60SetBank(unsigned char)
    enc28j60.o(i._Z13enc28j60Writehh) refers to enc28j60.o(i._Z15enc28j60WriteOphhh) for enc28j60WriteOp(unsigned char, unsigned char, unsigned char)
    enc28j60.o(i._Z14enc28j60ReadOphh) refers to enc28j60.o(i._ZN32_INTERNAL_10_enc28j60_c_db74034712enc28j60_cslEv) for [local to enc28j60_c]::enc28j60_csl()
    enc28j60.o(i._Z14enc28j60ReadOphh) refers to spi_enc28j60.o(i._Z14SPI1_ReadWriteh) for SPI1_ReadWrite(unsigned char)
    enc28j60.o(i._Z14enc28j60ReadOphh) refers to enc28j60.o(i._ZN32_INTERNAL_10_enc28j60_c_db74034712enc28j60_cshEv) for [local to enc28j60_c]::enc28j60_csh()
    enc28j60.o(i._Z14enc28j60clkouth) refers to enc28j60.o(i._Z13enc28j60Writehh) for enc28j60Write(unsigned char, unsigned char)
    enc28j60.o(i._Z14enc28j60getrevv) refers to enc28j60.o(i._Z12enc28j60Readh) for enc28j60Read(unsigned char)
    enc28j60.o(i._Z15enc28j60PhyReadh) refers to enc28j60.o(i._Z13enc28j60Writehh) for enc28j60Write(unsigned char, unsigned char)
    enc28j60.o(i._Z15enc28j60PhyReadh) refers to enc28j60.o(i._Z12enc28j60Readh) for enc28j60Read(unsigned char)
    enc28j60.o(i._Z15enc28j60SetBankh) refers to enc28j60.o(i._Z15enc28j60WriteOphhh) for enc28j60WriteOp(unsigned char, unsigned char, unsigned char)
    enc28j60.o(i._Z15enc28j60SetBankh) refers to enc28j60.o(.data) for Enc28j60Bank
    enc28j60.o(i._Z15enc28j60WriteOphhh) refers to enc28j60.o(i._ZN32_INTERNAL_10_enc28j60_c_db74034712enc28j60_cslEv) for [local to enc28j60_c]::enc28j60_csl()
    enc28j60.o(i._Z15enc28j60WriteOphhh) refers to spi_enc28j60.o(i._Z14SPI1_ReadWriteh) for SPI1_ReadWrite(unsigned char)
    enc28j60.o(i._Z15enc28j60WriteOphhh) refers to enc28j60.o(i._ZN32_INTERNAL_10_enc28j60_c_db74034712enc28j60_cshEv) for [local to enc28j60_c]::enc28j60_csh()
    enc28j60.o(i._Z16enc28j60PhyWritehj) refers to enc28j60.o(i._Z13enc28j60Writehh) for enc28j60Write(unsigned char, unsigned char)
    enc28j60.o(i._Z16enc28j60PhyWritehj) refers to enc28j60.o(i._Z12enc28j60Readh) for enc28j60Read(unsigned char)
    enc28j60.o(i._Z18enc28j60PacketSendjPh) refers to enc28j60.o(i._Z13enc28j60Writehh) for enc28j60Write(unsigned char, unsigned char)
    enc28j60.o(i._Z18enc28j60PacketSendjPh) refers to enc28j60.o(i._Z15enc28j60WriteOphhh) for enc28j60WriteOp(unsigned char, unsigned char, unsigned char)
    enc28j60.o(i._Z18enc28j60PacketSendjPh) refers to enc28j60.o(i._Z19enc28j60WriteBufferjPh) for enc28j60WriteBuffer(unsigned, unsigned char*)
    enc28j60.o(i._Z18enc28j60PacketSendjPh) refers to enc28j60.o(i._Z12enc28j60Readh) for enc28j60Read(unsigned char)
    enc28j60.o(i._Z18enc28j60ReadBufferjPh) refers to enc28j60.o(i._ZN32_INTERNAL_10_enc28j60_c_db74034712enc28j60_cslEv) for [local to enc28j60_c]::enc28j60_csl()
    enc28j60.o(i._Z18enc28j60ReadBufferjPh) refers to spi_enc28j60.o(i._Z14SPI1_ReadWriteh) for SPI1_ReadWrite(unsigned char)
    enc28j60.o(i._Z18enc28j60ReadBufferjPh) refers to enc28j60.o(i._ZN32_INTERNAL_10_enc28j60_c_db74034712enc28j60_cshEv) for [local to enc28j60_c]::enc28j60_csh()
    enc28j60.o(i._Z19enc28j60WriteBufferjPh) refers to enc28j60.o(i._ZN32_INTERNAL_10_enc28j60_c_db74034712enc28j60_cslEv) for [local to enc28j60_c]::enc28j60_csl()
    enc28j60.o(i._Z19enc28j60WriteBufferjPh) refers to spi_enc28j60.o(i._Z14SPI1_ReadWriteh) for SPI1_ReadWrite(unsigned char)
    enc28j60.o(i._Z19enc28j60WriteBufferjPh) refers to enc28j60.o(i._ZN32_INTERNAL_10_enc28j60_c_db74034712enc28j60_cshEv) for [local to enc28j60_c]::enc28j60_csh()
    enc28j60.o(i._Z21enc28j60PacketReceivejPh) refers to enc28j60.o(i._Z12enc28j60Readh) for enc28j60Read(unsigned char)
    enc28j60.o(i._Z21enc28j60PacketReceivejPh) refers to enc28j60.o(i._Z13enc28j60Writehh) for enc28j60Write(unsigned char, unsigned char)
    enc28j60.o(i._Z21enc28j60PacketReceivejPh) refers to enc28j60.o(i._Z14enc28j60ReadOphh) for enc28j60ReadOp(unsigned char, unsigned char)
    enc28j60.o(i._Z21enc28j60PacketReceivejPh) refers to enc28j60.o(i._Z18enc28j60ReadBufferjPh) for enc28j60ReadBuffer(unsigned, unsigned char*)
    enc28j60.o(i._Z21enc28j60PacketReceivejPh) refers to enc28j60.o(i._Z15enc28j60WriteOphhh) for enc28j60WriteOp(unsigned char, unsigned char, unsigned char)
    enc28j60.o(i._Z21enc28j60PacketReceivejPh) refers to enc28j60.o(.data) for NextPacketPtr
    enc28j60.o(i._ZN32_INTERNAL_10_enc28j60_c_db74034712enc28j60_cshEv) refers to device.o(i._Z10__delay_nsi) for __delay_ns(int)
    enc28j60.o(i._ZN32_INTERNAL_10_enc28j60_c_db74034712enc28j60_cshEv) refers to gpio.o(i._Z12gpio_pin_setP12GPIO_TypeDefj) for gpio_pin_set(GPIO_TypeDef*, unsigned)
    enc28j60.o(i._ZN32_INTERNAL_10_enc28j60_c_db74034712enc28j60_cslEv) refers to device.o(i._Z10__delay_nsi) for __delay_ns(int)
    enc28j60.o(i._ZN32_INTERNAL_10_enc28j60_c_db74034712enc28j60_cslEv) refers to gpio.o(i._Z14gpio_pin_resetP12GPIO_TypeDefj) for gpio_pin_reset(GPIO_TypeDef*, unsigned)
    enc28j60.o(.ARM.exidx) refers to enc28j60.o(i._ZN32_INTERNAL_10_enc28j60_c_db74034712enc28j60_cslEv) for i._ZN32_INTERNAL_10_enc28j60_c_db74034712enc28j60_cslEv
    enc28j60.o(.ARM.exidx) refers to enc28j60.o(i._ZN32_INTERNAL_10_enc28j60_c_db74034712enc28j60_cshEv) for i._ZN32_INTERNAL_10_enc28j60_c_db74034712enc28j60_cshEv
    enc28j60.o(.ARM.exidx) refers to enc28j60.o(i._Z14enc28j60ReadOphh) for i._Z14enc28j60ReadOphh
    enc28j60.o(.ARM.exidx) refers to enc28j60.o(i._Z15enc28j60WriteOphhh) for i._Z15enc28j60WriteOphhh
    enc28j60.o(.ARM.exidx) refers to enc28j60.o(i._Z18enc28j60ReadBufferjPh) for i._Z18enc28j60ReadBufferjPh
    enc28j60.o(.ARM.exidx) refers to enc28j60.o(i._Z19enc28j60WriteBufferjPh) for i._Z19enc28j60WriteBufferjPh
    enc28j60.o(.ARM.exidx) refers to enc28j60.o(i._Z15enc28j60SetBankh) for i._Z15enc28j60SetBankh
    enc28j60.o(.ARM.exidx) refers to enc28j60.o(i._Z12enc28j60Readh) for i._Z12enc28j60Readh
    enc28j60.o(.ARM.exidx) refers to enc28j60.o(i._Z13enc28j60Writehh) for i._Z13enc28j60Writehh
    enc28j60.o(.ARM.exidx) refers to enc28j60.o(i._Z16enc28j60PhyWritehj) for i._Z16enc28j60PhyWritehj
    enc28j60.o(.ARM.exidx) refers to enc28j60.o(i._Z15enc28j60PhyReadh) for i._Z15enc28j60PhyReadh
    enc28j60.o(.ARM.exidx) refers to enc28j60.o(i._Z14enc28j60clkouth) for i._Z14enc28j60clkouth
    enc28j60.o(.ARM.exidx) refers to enc28j60.o(i._Z12enc28j60InitPh) for i._Z12enc28j60InitPh
    enc28j60.o(.ARM.exidx) refers to enc28j60.o(i._Z14enc28j60getrevv) for i._Z14enc28j60getrevv
    enc28j60.o(.ARM.exidx) refers to enc28j60.o(i._Z18enc28j60PacketSendjPh) for i._Z18enc28j60PacketSendjPh
    enc28j60.o(.ARM.exidx) refers to enc28j60.o(i._Z21enc28j60PacketReceivejPh) for i._Z21enc28j60PacketReceivejPh
    ip_arp_udp_tcp.o(i._Z12make_tcpheadPhjhh) refers to ip_arp_udp_tcp.o(.data) for wwwport
    ip_arp_udp_tcp.o(i._Z13init_len_infoPh) refers to ip_arp_udp_tcp.o(.data) for info_data_len
    ip_arp_udp_tcp.o(i._Z19init_ip_arp_udp_tcpPhS_h) refers to ip_arp_udp_tcp.o(.data) for wwwport
    ip_arp_udp_tcp.o(i._Z20fill_ip_hdr_checksumPh) refers to ip_arp_udp_tcp.o(i._Z8checksumPhjh) for checksum(unsigned char*, unsigned, unsigned char)
    ip_arp_udp_tcp.o(i._Z20get_tcp_data_pointerv) refers to ip_arp_udp_tcp.o(.data) for info_data_len
    ip_arp_udp_tcp.o(i._Z21make_tcp_ack_from_anyPh) refers to ip_arp_udp_tcp.o(i._Z8make_ethPh) for make_eth(unsigned char*)
    ip_arp_udp_tcp.o(i._Z21make_tcp_ack_from_anyPh) refers to ip_arp_udp_tcp.o(i._Z12make_tcpheadPhjhh) for make_tcphead(unsigned char*, unsigned, unsigned char, unsigned char)
    ip_arp_udp_tcp.o(i._Z21make_tcp_ack_from_anyPh) refers to ip_arp_udp_tcp.o(i._Z7make_ipPh) for make_ip(unsigned char*)
    ip_arp_udp_tcp.o(i._Z21make_tcp_ack_from_anyPh) refers to ip_arp_udp_tcp.o(i._Z8checksumPhjh) for checksum(unsigned char*, unsigned, unsigned char)
    ip_arp_udp_tcp.o(i._Z21make_tcp_ack_from_anyPh) refers to enc28j60.o(i._Z18enc28j60PacketSendjPh) for enc28j60PacketSend(unsigned, unsigned char*)
    ip_arp_udp_tcp.o(i._Z21make_tcp_ack_from_anyPh) refers to ip_arp_udp_tcp.o(.data) for info_data_len
    ip_arp_udp_tcp.o(i._Z22make_tcp_ack_with_dataPhj) refers to ip_arp_udp_tcp.o(i._Z20fill_ip_hdr_checksumPh) for fill_ip_hdr_checksum(unsigned char*)
    ip_arp_udp_tcp.o(i._Z22make_tcp_ack_with_dataPhj) refers to ip_arp_udp_tcp.o(i._Z8checksumPhjh) for checksum(unsigned char*, unsigned, unsigned char)
    ip_arp_udp_tcp.o(i._Z22make_tcp_ack_with_dataPhj) refers to enc28j60.o(i._Z18enc28j60PacketSendjPh) for enc28j60PacketSend(unsigned, unsigned char*)
    ip_arp_udp_tcp.o(i._Z24eth_type_is_ip_and_my_ipPhj) refers to ip_arp_udp_tcp.o(.data) for ipaddr
    ip_arp_udp_tcp.o(i._Z24make_tcp_synack_from_synPh) refers to ip_arp_udp_tcp.o(i._Z8make_ethPh) for make_eth(unsigned char*)
    ip_arp_udp_tcp.o(i._Z24make_tcp_synack_from_synPh) refers to ip_arp_udp_tcp.o(i._Z7make_ipPh) for make_ip(unsigned char*)
    ip_arp_udp_tcp.o(i._Z24make_tcp_synack_from_synPh) refers to ip_arp_udp_tcp.o(i._Z12make_tcpheadPhjhh) for make_tcphead(unsigned char*, unsigned, unsigned char, unsigned char)
    ip_arp_udp_tcp.o(i._Z24make_tcp_synack_from_synPh) refers to ip_arp_udp_tcp.o(i._Z8checksumPhjh) for checksum(unsigned char*, unsigned, unsigned char)
    ip_arp_udp_tcp.o(i._Z24make_tcp_synack_from_synPh) refers to enc28j60.o(i._Z18enc28j60PacketSendjPh) for enc28j60PacketSend(unsigned, unsigned char*)
    ip_arp_udp_tcp.o(i._Z25eth_type_is_arp_and_my_ipPhj) refers to ip_arp_udp_tcp.o(.data) for ipaddr
    ip_arp_udp_tcp.o(i._Z27make_udp_reply_from_requestPhPcjj) refers to ip_arp_udp_tcp.o(i._Z8make_ethPh) for make_eth(unsigned char*)
    ip_arp_udp_tcp.o(i._Z27make_udp_reply_from_requestPhPcjj) refers to ip_arp_udp_tcp.o(i._Z7make_ipPh) for make_ip(unsigned char*)
    ip_arp_udp_tcp.o(i._Z27make_udp_reply_from_requestPhPcjj) refers to ip_arp_udp_tcp.o(i._Z8checksumPhjh) for checksum(unsigned char*, unsigned, unsigned char)
    ip_arp_udp_tcp.o(i._Z27make_udp_reply_from_requestPhPcjj) refers to enc28j60.o(i._Z18enc28j60PacketSendjPh) for enc28j60PacketSend(unsigned, unsigned char*)
    ip_arp_udp_tcp.o(i._Z28make_arp_answer_from_requestPh) refers to ip_arp_udp_tcp.o(i._Z8make_ethPh) for make_eth(unsigned char*)
    ip_arp_udp_tcp.o(i._Z28make_arp_answer_from_requestPh) refers to enc28j60.o(i._Z18enc28j60PacketSendjPh) for enc28j60PacketSend(unsigned, unsigned char*)
    ip_arp_udp_tcp.o(i._Z28make_arp_answer_from_requestPh) refers to ip_arp_udp_tcp.o(.data) for macaddr
    ip_arp_udp_tcp.o(i._Z28make_echo_reply_from_requestPhj) refers to ip_arp_udp_tcp.o(i._Z8make_ethPh) for make_eth(unsigned char*)
    ip_arp_udp_tcp.o(i._Z28make_echo_reply_from_requestPhj) refers to ip_arp_udp_tcp.o(i._Z7make_ipPh) for make_ip(unsigned char*)
    ip_arp_udp_tcp.o(i._Z28make_echo_reply_from_requestPhj) refers to enc28j60.o(i._Z18enc28j60PacketSendjPh) for enc28j60PacketSend(unsigned, unsigned char*)
    ip_arp_udp_tcp.o(i._Z7make_ipPh) refers to ip_arp_udp_tcp.o(i._Z20fill_ip_hdr_checksumPh) for fill_ip_hdr_checksum(unsigned char*)
    ip_arp_udp_tcp.o(i._Z7make_ipPh) refers to ip_arp_udp_tcp.o(.data) for ipaddr
    ip_arp_udp_tcp.o(i._Z8make_ethPh) refers to ip_arp_udp_tcp.o(.data) for macaddr
    ip_arp_udp_tcp.o(i._ZN38_INTERNAL_16_ip_arp_udp_tcp_c_7981167412enc28j60_cshEv) refers to device.o(i._Z10__delay_nsi) for __delay_ns(int)
    ip_arp_udp_tcp.o(i._ZN38_INTERNAL_16_ip_arp_udp_tcp_c_7981167412enc28j60_cshEv) refers to gpio.o(i._Z12gpio_pin_setP12GPIO_TypeDefj) for gpio_pin_set(GPIO_TypeDef*, unsigned)
    ip_arp_udp_tcp.o(i._ZN38_INTERNAL_16_ip_arp_udp_tcp_c_7981167412enc28j60_cslEv) refers to device.o(i._Z10__delay_nsi) for __delay_ns(int)
    ip_arp_udp_tcp.o(i._ZN38_INTERNAL_16_ip_arp_udp_tcp_c_7981167412enc28j60_cslEv) refers to gpio.o(i._Z14gpio_pin_resetP12GPIO_TypeDefj) for gpio_pin_reset(GPIO_TypeDef*, unsigned)
    ip_arp_udp_tcp.o(.ARM.exidx) refers to ip_arp_udp_tcp.o(i._ZN38_INTERNAL_16_ip_arp_udp_tcp_c_7981167412enc28j60_cslEv) for i._ZN38_INTERNAL_16_ip_arp_udp_tcp_c_7981167412enc28j60_cslEv
    ip_arp_udp_tcp.o(.ARM.exidx) refers to ip_arp_udp_tcp.o(i._ZN38_INTERNAL_16_ip_arp_udp_tcp_c_7981167412enc28j60_cshEv) for i._ZN38_INTERNAL_16_ip_arp_udp_tcp_c_7981167412enc28j60_cshEv
    ip_arp_udp_tcp.o(.ARM.exidx) refers to ip_arp_udp_tcp.o(i._Z8checksumPhjh) for i._Z8checksumPhjh
    ip_arp_udp_tcp.o(.ARM.exidx) refers to ip_arp_udp_tcp.o(i._Z19init_ip_arp_udp_tcpPhS_h) for i._Z19init_ip_arp_udp_tcpPhS_h
    ip_arp_udp_tcp.o(.ARM.exidx) refers to ip_arp_udp_tcp.o(i._Z25eth_type_is_arp_and_my_ipPhj) for i._Z25eth_type_is_arp_and_my_ipPhj
    ip_arp_udp_tcp.o(.ARM.exidx) refers to ip_arp_udp_tcp.o(i._Z24eth_type_is_ip_and_my_ipPhj) for i._Z24eth_type_is_ip_and_my_ipPhj
    ip_arp_udp_tcp.o(.ARM.exidx) refers to ip_arp_udp_tcp.o(i._Z8make_ethPh) for i._Z8make_ethPh
    ip_arp_udp_tcp.o(.ARM.exidx) refers to ip_arp_udp_tcp.o(i._Z20fill_ip_hdr_checksumPh) for i._Z20fill_ip_hdr_checksumPh
    ip_arp_udp_tcp.o(.ARM.exidx) refers to ip_arp_udp_tcp.o(i._Z7make_ipPh) for i._Z7make_ipPh
    ip_arp_udp_tcp.o(.ARM.exidx) refers to ip_arp_udp_tcp.o(i._Z12make_tcpheadPhjhh) for i._Z12make_tcpheadPhjhh
    ip_arp_udp_tcp.o(.ARM.exidx) refers to ip_arp_udp_tcp.o(i._Z28make_arp_answer_from_requestPh) for i._Z28make_arp_answer_from_requestPh
    ip_arp_udp_tcp.o(.ARM.exidx) refers to ip_arp_udp_tcp.o(i._Z28make_echo_reply_from_requestPhj) for i._Z28make_echo_reply_from_requestPhj
    ip_arp_udp_tcp.o(.ARM.exidx) refers to ip_arp_udp_tcp.o(i._Z27make_udp_reply_from_requestPhPcjj) for i._Z27make_udp_reply_from_requestPhPcjj
    ip_arp_udp_tcp.o(.ARM.exidx) refers to ip_arp_udp_tcp.o(i._Z24make_tcp_synack_from_synPh) for i._Z24make_tcp_synack_from_synPh
    ip_arp_udp_tcp.o(.ARM.exidx) refers to ip_arp_udp_tcp.o(i._Z20get_tcp_data_pointerv) for i._Z20get_tcp_data_pointerv
    ip_arp_udp_tcp.o(.ARM.exidx) refers to ip_arp_udp_tcp.o(i._Z13init_len_infoPh) for i._Z13init_len_infoPh
    ip_arp_udp_tcp.o(.ARM.exidx) refers to ip_arp_udp_tcp.o(i._Z15fill_tcp_data_pPhjPKh) for i._Z15fill_tcp_data_pPhjPKh
    ip_arp_udp_tcp.o(.ARM.exidx) refers to ip_arp_udp_tcp.o(i._Z13fill_tcp_dataPhjPKc) for i._Z13fill_tcp_dataPhjPKc
    ip_arp_udp_tcp.o(.ARM.exidx) refers to ip_arp_udp_tcp.o(i._Z21make_tcp_ack_from_anyPh) for i._Z21make_tcp_ack_from_anyPh
    ip_arp_udp_tcp.o(.ARM.exidx) refers to ip_arp_udp_tcp.o(i._Z22make_tcp_ack_with_dataPhj) for i._Z22make_tcp_ack_with_dataPhj
    spi_enc28j60.o(i._Z14SPI1_ReadWriteh) refers to init.o(.bss) for SpiHandle_Enc28j60
    spi_enc28j60.o(.ARM.exidx) refers to spi_enc28j60.o(i._Z14SPI1_ReadWriteh) for i._Z14SPI1_ReadWriteh
    sspi.o(i._ZN4sspi4readEv) refers to sspi.o(i._ZN4sspi8delay_nsEj) for sspi::delay_ns(unsigned)
    sspi.o(i._ZN4sspi5writeEh) refers to sspi.o(i._ZN4sspi8delay_nsEj) for sspi::delay_ns(unsigned)
    sspi.o(.ARM.exidx) refers to sspi.o(i._ZN4sspi8delay_nsEj) for i._ZN4sspi8delay_nsEj
    sspi.o(.ARM.exidx) refers to sspi.o(i._ZN4sspi3SpiEv) for i._ZN4sspi3SpiEv
    sspi.o(.ARM.exidx) refers to sspi.o(i._ZN4sspi5writeEh) for i._ZN4sspi5writeEh
    sspi.o(.ARM.exidx) refers to sspi.o(i._ZN4sspi4readEv) for i._ZN4sspi4readEv
    sspi.o(.ARM.exidx) refers to sspi.o(i._ZN4sspi9readWriteEh) for i._ZN4sspi9readWriteEh
    phy_mac_interface.o(i._ZN15PhyMacInterface17chipPacketReceiveEjPh) refers to enc28j60.o(i._Z21enc28j60PacketReceivejPh) for enc28j60PacketReceive(unsigned, unsigned char*)
    phy_mac_interface.o(i._ZN15PhyMacInterface7mcuInitEPh) refers to enc28j60.o(i._Z12enc28j60InitPh) for enc28j60Init(unsigned char*)
    phy_mac_interface.o(i._ZN15PhyMacInterface7mcuInitEPh) refers to enc28j60.o(i._Z16enc28j60PhyWritehj) for enc28j60PhyWrite(unsigned char, unsigned)
    phy_mac_interface.o(i._ZN43_INTERNAL_21_phy_mac_interface_cpp_fc8e019012enc28j60_cshEv) refers to device.o(i._Z10__delay_nsi) for __delay_ns(int)
    phy_mac_interface.o(i._ZN43_INTERNAL_21_phy_mac_interface_cpp_fc8e019012enc28j60_cshEv) refers to gpio.o(i._Z12gpio_pin_setP12GPIO_TypeDefj) for gpio_pin_set(GPIO_TypeDef*, unsigned)
    phy_mac_interface.o(i._ZN43_INTERNAL_21_phy_mac_interface_cpp_fc8e019012enc28j60_cslEv) refers to device.o(i._Z10__delay_nsi) for __delay_ns(int)
    phy_mac_interface.o(i._ZN43_INTERNAL_21_phy_mac_interface_cpp_fc8e019012enc28j60_cslEv) refers to gpio.o(i._Z14gpio_pin_resetP12GPIO_TypeDefj) for gpio_pin_reset(GPIO_TypeDef*, unsigned)
    phy_mac_interface.o(.ARM.exidx) refers to phy_mac_interface.o(i._ZN43_INTERNAL_21_phy_mac_interface_cpp_fc8e019012enc28j60_cslEv) for i._ZN43_INTERNAL_21_phy_mac_interface_cpp_fc8e019012enc28j60_cslEv
    phy_mac_interface.o(.ARM.exidx) refers to phy_mac_interface.o(i._ZN43_INTERNAL_21_phy_mac_interface_cpp_fc8e019012enc28j60_cshEv) for i._ZN43_INTERNAL_21_phy_mac_interface_cpp_fc8e019012enc28j60_cshEv
    phy_mac_interface.o(.ARM.exidx) refers to phy_mac_interface.o(i._ZN15PhyMacInterface7mcuInitEPh) for i._ZN15PhyMacInterface7mcuInitEPh
    phy_mac_interface.o(.ARM.exidx) refers to phy_mac_interface.o(i._ZN15PhyMacInterface17chipPacketReceiveEjPh) for i._ZN15PhyMacInterface17chipPacketReceiveEjPh
    web_server.o(i._Z10Web_Serverv) refers to cxa_guard_acquire.o(i.__cxa_guard_acquire) for __cxa_guard_acquire
    web_server.o(i._Z10Web_Serverv) refers to ip_arp_udp_tcp.o(i._Z19init_ip_arp_udp_tcpPhS_h) for init_ip_arp_udp_tcp(unsigned char*, unsigned char*, unsigned char)
    web_server.o(i._Z10Web_Serverv) refers to ip_arp_udp_tcp.o(i._Z25eth_type_is_arp_and_my_ipPhj) for eth_type_is_arp_and_my_ip(unsigned char*, unsigned)
    web_server.o(i._Z10Web_Serverv) refers to ip_arp_udp_tcp.o(i._Z28make_arp_answer_from_requestPh) for make_arp_answer_from_request(unsigned char*)
    web_server.o(i._Z10Web_Serverv) refers to ip_arp_udp_tcp.o(i._Z24eth_type_is_ip_and_my_ipPhj) for eth_type_is_ip_and_my_ip(unsigned char*, unsigned)
    web_server.o(i._Z10Web_Serverv) refers to ip_arp_udp_tcp.o(i._Z28make_echo_reply_from_requestPhj) for make_echo_reply_from_request(unsigned char*, unsigned)
    web_server.o(i._Z10Web_Serverv) refers to ip_arp_udp_tcp.o(i._Z24make_tcp_synack_from_synPh) for make_tcp_synack_from_syn(unsigned char*)
    web_server.o(i._Z10Web_Serverv) refers to ip_arp_udp_tcp.o(i._Z13init_len_infoPh) for init_len_info(unsigned char*)
    web_server.o(i._Z10Web_Serverv) refers to ip_arp_udp_tcp.o(i._Z20get_tcp_data_pointerv) for get_tcp_data_pointer()
    web_server.o(i._Z10Web_Serverv) refers to ip_arp_udp_tcp.o(i._Z21make_tcp_ack_from_anyPh) for make_tcp_ack_from_any(unsigned char*)
    web_server.o(i._Z10Web_Serverv) refers to strncmp.o(.text) for strncmp
    web_server.o(i._Z10Web_Serverv) refers to ip_arp_udp_tcp.o(i._Z15fill_tcp_data_pPhjPKh) for fill_tcp_data_p(unsigned char*, unsigned, const unsigned char*)
    web_server.o(i._Z10Web_Serverv) refers to ip_arp_udp_tcp.o(i._Z13fill_tcp_dataPhjPKc) for fill_tcp_data(unsigned char*, unsigned, const char*)
    web_server.o(i._Z10Web_Serverv) refers to web_server.o(i._Z15analyse_get_urlPc) for analyse_get_url(char*)
    web_server.o(i._Z10Web_Serverv) refers to web_interface.o(i._ZN18WebServerInterface18applySimpleCommandEi) for WebServerInterface::applySimpleCommand(int)
    web_server.o(i._Z10Web_Serverv) refers to web_server.o(i._Z13print_webpagePhh) for print_webpage(unsigned char*, unsigned char)
    web_server.o(i._Z10Web_Serverv) refers to ip_arp_udp_tcp.o(i._Z22make_tcp_ack_with_dataPhj) for make_tcp_ack_with_data(unsigned char*, unsigned)
    web_server.o(i._Z10Web_Serverv) refers to ip_arp_udp_tcp.o(i._Z27make_udp_reply_from_requestPhPcjj) for make_udp_reply_from_request(unsigned char*, char*, unsigned, unsigned)
    web_server.o(i._Z10Web_Serverv) refers to web_server.o(.data) for _ZGV_ZZ10Web_ServervE8ethernet
    web_server.o(i._Z10Web_Serverv) refers to web_server.o(.constdata__ZTV12SynchronizerI15PhyMacInterfaceE) for vtable for Synchronizer<PhyMacInterface>
    web_server.o(i._Z10Web_Serverv) refers to phy_mac_interface.o(.constdata__ZTV15PhyMacInterface) for vtable for PhyMacInterface
    web_server.o(i._Z10Web_Serverv) refers to web_server.o(.bss) for buf
    web_server.o(i._Z10Web_Serverv) refers to web_server.o(.conststring) for .conststring
    web_server.o(i._Z10Web_Serverv) refers to web_interface.o(.data) for __wFace
    web_server.o(i._Z13print_webpagePhh) refers to ip_arp_udp_tcp.o(i._Z15fill_tcp_data_pPhjPKh) for fill_tcp_data_p(unsigned char*, unsigned, const unsigned char*)
    web_server.o(i._Z13print_webpagePhh) refers to ip_arp_udp_tcp.o(i._Z13fill_tcp_dataPhjPKc) for fill_tcp_data(unsigned char*, unsigned, const char*)
    web_server.o(i._Z13print_webpagePhh) refers to web_server.o(.data) for baseurl
    web_server.o(i._Z13print_webpagePhh) refers to web_server.o(.conststring) for .conststring
    web_server.o(i._Z15analyse_get_urlPc) refers to web_server.o(i._Z15verify_passwordPc) for verify_password(char*)
    web_server.o(i._Z15verify_passwordPc) refers to strncmp.o(.text) for strncmp
    web_server.o(i._Z15verify_passwordPc) refers to web_server.o(.data) for password
    web_server.o(.ARM.exidx) refers to web_server.o(i._Z15verify_passwordPc) for i._Z15verify_passwordPc
    web_server.o(.ARM.exidx) refers to web_server.o(i._Z15analyse_get_urlPc) for i._Z15analyse_get_urlPc
    web_server.o(.ARM.exidx) refers to web_server.o(i._Z13print_webpagePhh) for i._Z13print_webpagePhh
    web_server.o(.ARM.exidx) refers to web_server.o(i._Z10Web_Serverv) for i._Z10Web_Serverv
    web_interface.o(.ARM.exidx) refers to web_interface.o(i._ZN18WebServerInterface18applySimpleCommandEi) for i._ZN18WebServerInterface18applySimpleCommandEi
    startup_stm32f746xx.o(STACK) refers (Special) to heapauxi.o(.text) for __use_two_region_memory
    startup_stm32f746xx.o(HEAP) refers (Special) to heapauxi.o(.text) for __use_two_region_memory
    startup_stm32f746xx.o(RESET) refers (Special) to heapauxi.o(.text) for __use_two_region_memory
    startup_stm32f746xx.o(RESET) refers to startup_stm32f746xx.o(STACK) for __initial_sp
    startup_stm32f746xx.o(RESET) refers to startup_stm32f746xx.o(.text) for Reset_Handler
    startup_stm32f746xx.o(RESET) refers to stm32f7xx_it.o(i.NMI_Handler) for NMI_Handler
    startup_stm32f746xx.o(RESET) refers to stm32f7xx_it.o(i.HardFault_Handler) for HardFault_Handler
    startup_stm32f746xx.o(RESET) refers to stm32f7xx_it.o(i.MemManage_Handler) for MemManage_Handler
    startup_stm32f746xx.o(RESET) refers to stm32f7xx_it.o(i.BusFault_Handler) for BusFault_Handler
    startup_stm32f746xx.o(RESET) refers to stm32f7xx_it.o(i.UsageFault_Handler) for UsageFault_Handler
    startup_stm32f746xx.o(RESET) refers to stm32f7xx_it.o(i.SVC_Handler) for SVC_Handler
    startup_stm32f746xx.o(RESET) refers to stm32f7xx_it.o(i.DebugMon_Handler) for DebugMon_Handler
    startup_stm32f746xx.o(RESET) refers to stm32f7xx_it.o(i.PendSV_Handler) for PendSV_Handler
    startup_stm32f746xx.o(RESET) refers to stm32f7xx_it.o(i.SysTick_Handler) for SysTick_Handler
    startup_stm32f746xx.o(.text) refers (Special) to heapauxi.o(.text) for __use_two_region_memory
    startup_stm32f746xx.o(.text) refers to system_stm32f7xx.o(i.SystemInit) for SystemInit
    startup_stm32f746xx.o(.text) refers to __main.o(!!!main) for __main
    startup_stm32f746xx.o(.text) refers to startup_stm32f746xx.o(HEAP) for Heap_Mem
    startup_stm32f746xx.o(.text) refers to startup_stm32f746xx.o(STACK) for Stack_Mem
    system_stm32f7xx.o(i.SystemCoreClockUpdate) refers to system_stm32f7xx.o(.data) for SystemCoreClock
    system_stm32f7xx.o(i.SystemCoreClockUpdate) refers to system_stm32f7xx.o(.constdata) for AHBPrescTable
    system_stm32f7xx.o(.ARM.exidx) refers to system_stm32f7xx.o(i.SystemInit) for i.SystemInit
    system_stm32f7xx.o(.ARM.exidx) refers to system_stm32f7xx.o(i.SystemCoreClockUpdate) for i.SystemCoreClockUpdate
    __main.o(!!!main) refers to __rtentry.o(.ARM.Collect$$rtentry$$00000000) for __rt_entry
    cxa_guard_acquire.o(.ARM.exidx) refers to cxa_guard_acquire.o(i.__cxa_guard_acquire) for i.__cxa_guard_acquire
    cxa_guard_release.o(.ARM.exidx) refers to cxa_guard_release.o(i.__cxa_guard_release) for i.__cxa_guard_release
    lib_rtti_impl.o(i._ZN10__cxxabiv116__enum_type_infoD0Ev) refers to lib_rtti_impl.o(i._ZN10__cxxabiv116__enum_type_infoD1Ev) for __cxxabiv1::__enum_type_info::~__enum_type_info()
    lib_rtti_impl.o(i._ZN10__cxxabiv117__array_type_infoD0Ev) refers to lib_rtti_impl.o(i._ZN10__cxxabiv117__array_type_infoD1Ev) for __cxxabiv1::__array_type_info::~__array_type_info()
    lib_rtti_impl.o(i._ZN10__cxxabiv117__class_type_infoD0Ev) refers to lib_rtti_impl.o(i._ZN10__cxxabiv117__class_type_infoD1Ev) for __cxxabiv1::__class_type_info::~__class_type_info()
    lib_rtti_impl.o(i._ZN10__cxxabiv117__pbase_type_infoD0Ev) refers to lib_rtti_impl.o(i._ZN10__cxxabiv117__pbase_type_infoD1Ev) for __cxxabiv1::__pbase_type_info::~__pbase_type_info()
    lib_rtti_impl.o(i._ZN10__cxxabiv119__pointer_type_infoD0Ev) refers to lib_rtti_impl.o(i._ZN10__cxxabiv119__pointer_type_infoD1Ev) for __cxxabiv1::__pointer_type_info::~__pointer_type_info()
    lib_rtti_impl.o(i._ZN10__cxxabiv119__pointer_type_infoD1Ev) refers to lib_rtti_impl.o(i._ZN10__cxxabiv117__pbase_type_infoD1Ev) for __cxxabiv1::__pbase_type_info::~__pbase_type_info()
    lib_rtti_impl.o(i._ZN10__cxxabiv120__function_type_infoD0Ev) refers to lib_rtti_impl.o(i._ZN10__cxxabiv120__function_type_infoD1Ev) for __cxxabiv1::__function_type_info::~__function_type_info()
    lib_rtti_impl.o(i._ZN10__cxxabiv120__si_class_type_infoD0Ev) refers to lib_rtti_impl.o(i._ZN10__cxxabiv120__si_class_type_infoD1Ev) for __cxxabiv1::__si_class_type_info::~__si_class_type_info()
    lib_rtti_impl.o(i._ZN10__cxxabiv120__si_class_type_infoD1Ev) refers to lib_rtti_impl.o(i._ZN10__cxxabiv117__class_type_infoD1Ev) for __cxxabiv1::__class_type_info::~__class_type_info()
    lib_rtti_impl.o(i._ZN10__cxxabiv121__vmi_class_type_infoD0Ev) refers to lib_rtti_impl.o(i._ZN10__cxxabiv121__vmi_class_type_infoD1Ev) for __cxxabiv1::__vmi_class_type_info::~__vmi_class_type_info()
    lib_rtti_impl.o(i._ZN10__cxxabiv121__vmi_class_type_infoD1Ev) refers to lib_rtti_impl.o(i._ZN10__cxxabiv117__class_type_infoD1Ev) for __cxxabiv1::__class_type_info::~__class_type_info()
    lib_rtti_impl.o(i._ZN10__cxxabiv123__fundamental_type_infoD0Ev) refers to lib_rtti_impl.o(i._ZN10__cxxabiv123__fundamental_type_infoD1Ev) for __cxxabiv1::__fundamental_type_info::~__fundamental_type_info()
    lib_rtti_impl.o(i._ZN10__cxxabiv129__pointer_to_member_type_infoD0Ev) refers to lib_rtti_impl.o(i._ZN10__cxxabiv129__pointer_to_member_type_infoD1Ev) for __cxxabiv1::__pointer_to_member_type_info::~__pointer_to_member_type_info()
    lib_rtti_impl.o(i._ZN10__cxxabiv129__pointer_to_member_type_infoD1Ev) refers to lib_rtti_impl.o(i._ZN10__cxxabiv117__pbase_type_infoD1Ev) for __cxxabiv1::__pbase_type_info::~__pbase_type_info()
    lib_rtti_impl.o(.ARM.exidx) refers to lib_rtti_impl.o(i._ZN10__cxxabiv123__fundamental_type_infoD1Ev) for i._ZN10__cxxabiv123__fundamental_type_infoD1Ev
    lib_rtti_impl.o(.ARM.exidx) refers to lib_rtti_impl.o(i._ZN10__cxxabiv123__fundamental_type_infoD0Ev) for i._ZN10__cxxabiv123__fundamental_type_infoD0Ev
    lib_rtti_impl.o(.ARM.exidx) refers to lib_rtti_impl.o(i._ZN10__cxxabiv117__array_type_infoD1Ev) for i._ZN10__cxxabiv117__array_type_infoD1Ev
    lib_rtti_impl.o(.ARM.exidx) refers to lib_rtti_impl.o(i._ZN10__cxxabiv117__array_type_infoD0Ev) for i._ZN10__cxxabiv117__array_type_infoD0Ev
    lib_rtti_impl.o(.ARM.exidx) refers to lib_rtti_impl.o(i._ZN10__cxxabiv120__function_type_infoD1Ev) for i._ZN10__cxxabiv120__function_type_infoD1Ev
    lib_rtti_impl.o(.ARM.exidx) refers to lib_rtti_impl.o(i._ZN10__cxxabiv120__function_type_infoD0Ev) for i._ZN10__cxxabiv120__function_type_infoD0Ev
    lib_rtti_impl.o(.ARM.exidx) refers to lib_rtti_impl.o(i._ZN10__cxxabiv116__enum_type_infoD1Ev) for i._ZN10__cxxabiv116__enum_type_infoD1Ev
    lib_rtti_impl.o(.ARM.exidx) refers to lib_rtti_impl.o(i._ZN10__cxxabiv116__enum_type_infoD0Ev) for i._ZN10__cxxabiv116__enum_type_infoD0Ev
    lib_rtti_impl.o(.ARM.exidx) refers to lib_rtti_impl.o(i._ZN10__cxxabiv117__class_type_infoD1Ev) for i._ZN10__cxxabiv117__class_type_infoD1Ev
    lib_rtti_impl.o(.ARM.exidx) refers to lib_rtti_impl.o(i._ZN10__cxxabiv117__class_type_infoD0Ev) for i._ZN10__cxxabiv117__class_type_infoD0Ev
    lib_rtti_impl.o(.ARM.exidx) refers to lib_rtti_impl.o(i._ZN10__cxxabiv120__si_class_type_infoD1Ev) for i._ZN10__cxxabiv120__si_class_type_infoD1Ev
    lib_rtti_impl.o(.ARM.exidx) refers to lib_rtti_impl.o(i._ZN10__cxxabiv120__si_class_type_infoD0Ev) for i._ZN10__cxxabiv120__si_class_type_infoD0Ev
    lib_rtti_impl.o(.ARM.exidx) refers to lib_rtti_impl.o(i._ZN10__cxxabiv121__vmi_class_type_infoD1Ev) for i._ZN10__cxxabiv121__vmi_class_type_infoD1Ev
    lib_rtti_impl.o(.ARM.exidx) refers to lib_rtti_impl.o(i._ZN10__cxxabiv121__vmi_class_type_infoD0Ev) for i._ZN10__cxxabiv121__vmi_class_type_infoD0Ev
    lib_rtti_impl.o(.ARM.exidx) refers to lib_rtti_impl.o(i._ZN10__cxxabiv117__pbase_type_infoD1Ev) for i._ZN10__cxxabiv117__pbase_type_infoD1Ev
    lib_rtti_impl.o(.ARM.exidx) refers to lib_rtti_impl.o(i._ZN10__cxxabiv117__pbase_type_infoD0Ev) for i._ZN10__cxxabiv117__pbase_type_infoD0Ev
    lib_rtti_impl.o(.ARM.exidx) refers to lib_rtti_impl.o(i._ZN10__cxxabiv119__pointer_type_infoD1Ev) for i._ZN10__cxxabiv119__pointer_type_infoD1Ev
    lib_rtti_impl.o(.ARM.exidx) refers to lib_rtti_impl.o(i._ZN10__cxxabiv119__pointer_type_infoD0Ev) for i._ZN10__cxxabiv119__pointer_type_infoD0Ev
    lib_rtti_impl.o(.ARM.exidx) refers to lib_rtti_impl.o(i._ZN10__cxxabiv129__pointer_to_member_type_infoD1Ev) for i._ZN10__cxxabiv129__pointer_to_member_type_infoD1Ev
    lib_rtti_impl.o(.ARM.exidx) refers to lib_rtti_impl.o(i._ZN10__cxxabiv129__pointer_to_member_type_infoD0Ev) for i._ZN10__cxxabiv129__pointer_to_member_type_infoD0Ev
    __rtentry.o(.ARM.Collect$$rtentry$$00000000) refers (Special) to __rtentry2.o(.ARM.Collect$$rtentry$$0000000A) for __rt_entry_li
    __rtentry.o(.ARM.Collect$$rtentry$$00000000) refers (Special) to __rtentry2.o(.ARM.Collect$$rtentry$$0000000D) for __rt_entry_main
    __rtentry.o(.ARM.Collect$$rtentry$$00000000) refers (Special) to __rtentry2.o(.ARM.Collect$$rtentry$$0000000C) for __rt_entry_postli_1
    __rtentry.o(.ARM.Collect$$rtentry$$00000000) refers (Special) to __rtentry2.o(.ARM.Collect$$rtentry$$00000009) for __rt_entry_postsh_1
    __rtentry.o(.ARM.Collect$$rtentry$$00000000) refers (Special) to __rtentry2.o(.ARM.Collect$$rtentry$$00000002) for __rt_entry_presh_1
    __rtentry.o(.ARM.Collect$$rtentry$$00000000) refers (Special) to __rtentry4.o(.ARM.Collect$$rtentry$$00000004) for __rt_entry_sh
    type_info_dtor.o(.ARM.exidx) refers to type_info_dtor.o(i._ZNSt9type_infoD1Ev) for i._ZNSt9type_infoD1Ev
    type_info_dtor.o(.ARM.exidx) refers to type_info_dtor.o(i._ZNSt9type_infoD0Ev) for i._ZNSt9type_infoD0Ev
    arm_exceptions_callterm.o(.text) refers to arm_exceptions_globs.o(.text) for __cxa_get_globals
    arm_exceptions_callterm.o(.text) refers to arm_exceptions_support.o(.text) for __ARM::is_foreign_exception(_Unwind_Control_Block*)
    arm_exceptions_callterm.o(.text) refers to arm_exceptions_terminate.o(.text) for std::terminate()
    arm_exceptions_callterm.o(.ARM.exidx) refers to arm_exceptions_callterm.o(.text) for .text
    __rtentry2.o(.ARM.Collect$$rtentry$$00000008) refers to boardinit2.o(.text) for _platform_post_stackheap_init
    __rtentry2.o(.ARM.Collect$$rtentry$$0000000A) refers to libinit.o(.ARM.Collect$$libinit$$00000000) for __rt_lib_init
    __rtentry2.o(.ARM.Collect$$rtentry$$0000000B) refers to boardinit3.o(.text) for _platform_post_lib_init
    __rtentry2.o(.ARM.Collect$$rtentry$$0000000D) refers to main.o(i.main) for main
    __rtentry2.o(.ARM.Collect$$rtentry$$0000000D) refers to exit.o(.text) for exit
    __rtentry2.o(.ARM.exidx) refers to __rtentry2.o(.ARM.Collect$$rtentry$$00000001) for .ARM.Collect$$rtentry$$00000001
    __rtentry2.o(.ARM.exidx) refers to __rtentry2.o(.ARM.Collect$$rtentry$$00000008) for .ARM.Collect$$rtentry$$00000008
    __rtentry2.o(.ARM.exidx) refers to __rtentry2.o(.ARM.Collect$$rtentry$$0000000A) for .ARM.Collect$$rtentry$$0000000A
    __rtentry2.o(.ARM.exidx) refers to __rtentry2.o(.ARM.Collect$$rtentry$$0000000B) for .ARM.Collect$$rtentry$$0000000B
    __rtentry2.o(.ARM.exidx) refers to __rtentry2.o(.ARM.Collect$$rtentry$$0000000D) for .ARM.Collect$$rtentry$$0000000D
    __rtentry4.o(.ARM.Collect$$rtentry$$00000004) refers to sys_stackheap_outer.o(.text) for __user_setup_stackheap
    __rtentry4.o(.ARM.exidx) refers to __rtentry4.o(.ARM.Collect$$rtentry$$00000004) for .ARM.Collect$$rtentry$$00000004
    arm_begincatch_noexceptions.o(.ARM.exidx) refers to arm_begincatch_noexceptions.o(.text) for .text
    arm_exceptions_support.o(.text) refers to arm_exceptions_support.o(.constdata) for .constdata
    arm_exceptions_support.o(.ARM.exidx) refers to arm_exceptions_support.o(.text) for .text
    arm_exceptions_terminate.o(.text) refers to arm_exceptions_globs.o(.text) for __cxa_get_globals
    arm_exceptions_terminate.o(.text) refers to abort.o(.text) for abort
    arm_exceptions_terminate.o(.ARM.exidx) refers to arm_exceptions_terminate.o(.text) for .text
    arm_exceptions_globs.o(.text) refers to abort.o(.text) for abort
    arm_exceptions_globs.o(.text) refers to rt_eh_globals_addr_intlibspace.o(.text) for __rt_eh_globals_addr
    arm_exceptions_globs.o(.text) refers to h1_alloc.o(.text) for malloc
    arm_exceptions_globs.o(.text) refers to arm_exceptions_mem.o(.text) for __ARM_exceptions_buffer_init
    arm_exceptions_globs.o(.ARM.exidx) refers to arm_exceptions_globs.o(.text) for .text
    sys_stackheap_outer.o(.text) refers to libspace.o(.text) for __user_perproc_libspace
    sys_stackheap_outer.o(.text) refers to startup_stm32f746xx.o(.text) for __user_initial_stackheap
    rt_eh_globals_addr.o(.text) refers to rt_eh_globals_addr.o(.bss) for __rt_eh_globals_addr_data
    rt_eh_globals_addr_intlibspace.o(.text) refers to libspace.o(.bss) for __libspace_start
    malloc.o(.text) refers (Special) to hguard.o(.text) for __heap$guard
    malloc.o(.text) refers (Special) to init_alloc.o(.text) for _init_alloc
    malloc.o(.text) refers to rt_heap_descriptor_intlibspace.o(.text) for __rt_heap_descriptor
    malloc.o(.text) refers to heapstubs.o(.text) for __Heap_Alloc
    h1_alloc.o(.text) refers (Special) to h1_init.o(.text) for __Heap_Initialize
    h1_alloc.o(.text) refers to rt_heap_descriptor_intlibspace.o(.text) for __rt_heap_descriptor
    h1_alloc.o(.text) refers to init_alloc.o(.text) for __Heap_Full
    h1_alloc_mt.o(.text) refers (Special) to h1_init.o(.text) for __Heap_Initialize
    h1_alloc_mt.o(.text) refers to init_alloc.o(.text) for __Heap_Full
    h1_alloc_mt.o(.text) refers to rt_heap_descriptor_intlibspace.o(.text) for __rt_heap_descriptor
    heap2.o(i._FDIterate) refers to heap2.o(.conststring) for .conststring
    heap2.o(i.___Heap_ProvideMemory$realtime) refers to fdtree.o(i._FDTree_Delete) for _FDTree_Delete
    heap2.o(i.___Heap_ProvideMemory$realtime) refers to fdtree.o(i._FDTree_Insert) for _FDTree_Insert
    heap2.o(i.___Heap_Stats$realtime) refers to heap2.o(i._Heap2_StatsIterate) for _Heap2_StatsIterate
    heap2.o(i.___Heap_Valid$realtime) refers to heap2.o(i._FDIterate) for _FDIterate
    heap2.o(i.___Heap_Valid$realtime) refers to heap2.o(.conststring) for .conststring
    heap2.o(i._free$realtime) refers to rt_heap_descriptor_intlibspace.o(.text) for __rt_heap_descriptor
    heap2.o(i._free$realtime) refers to fdtree.o(i._FDTree_Delete) for _FDTree_Delete
    heap2.o(i._free$realtime) refers to fdtree.o(i._FDTree_Insert) for _FDTree_Insert
    heap2.o(i._malloc$realtime) refers to rt_heap_descriptor_intlibspace.o(.text) for __rt_heap_descriptor
    heap2.o(i._malloc$realtime) refers to fdtree.o(i._FDTree_FindFirst) for _FDTree_FindFirst
    heap2.o(i._malloc$realtime) refers to init_alloc.o(.text) for __Heap_Full
    heap2.o(i._malloc$realtime) refers to fdtree.o(i._FDTree_RemoveNode) for _FDTree_RemoveNode
    heap2.o(i._malloc$realtime) refers to fdtree.o(i._FDTree_Insert) for _FDTree_Insert
    heap2.o(i._posix_memalign$realtime) refers to rt_heap_descriptor_intlibspace.o(.text) for __rt_heap_descriptor
    heap2.o(i._posix_memalign$realtime) refers to fdtree.o(i._FDTree_FindFirst) for _FDTree_FindFirst
    heap2.o(i._posix_memalign$realtime) refers to init_alloc.o(.text) for __Heap_Full
    heap2.o(i._posix_memalign$realtime) refers to fdtree.o(i._FDTree_RemoveNode) for _FDTree_RemoveNode
    heap2.o(i._posix_memalign$realtime) refers to fdtree.o(i._FDTree_Insert) for _FDTree_Insert
    heap2.o(i._realloc$realtime) refers to rt_heap_descriptor_intlibspace.o(.text) for __rt_heap_descriptor
    heap2.o(i._realloc$realtime) refers to fdtree.o(i._FDTree_Insert) for _FDTree_Insert
    heap2.o(i._realloc$realtime) refers to h1_free.o(.text) for free
    heap2.o(i._realloc$realtime) refers to h1_alloc.o(.text) for malloc
    heap2.o(i._realloc$realtime) refers to fdtree.o(i._FDTree_Delete) for _FDTree_Delete
    heap2.o(i._realloc$realtime) refers to rt_memcpy_w.o(.text) for __aeabi_memcpy4
    heap2mt.o(i._FDIterate) refers to heap2mt.o(.conststring) for .conststring
    heap2mt.o(i.___Heap_Initialize$realtime$concurrent) refers to mutex_dummy.o(.text) for _mutex_initialize
    heap2mt.o(i.___Heap_ProvideMemory$realtime$concurrent) refers to fdtree.o(i._FDTree_Delete) for _FDTree_Delete
    heap2mt.o(i.___Heap_ProvideMemory$realtime$concurrent) refers to fdtree.o(i._FDTree_Insert) for _FDTree_Insert
    heap2mt.o(i.___Heap_Stats$realtime$concurrent) refers to heap2mt.o(i._Heap2_StatsIterate) for _Heap2_StatsIterate
    heap2mt.o(i.___Heap_Valid$realtime$concurrent) refers to heap2mt.o(i._FDIterate) for _FDIterate
    heap2mt.o(i.___Heap_Valid$realtime$concurrent) refers to heap2mt.o(.conststring) for .conststring
    heap2mt.o(i._free$realtime$concurrent) refers to rt_heap_descriptor_intlibspace.o(.text) for __rt_heap_descriptor
    heap2mt.o(i._free$realtime$concurrent) refers to fdtree.o(i._FDTree_Delete) for _FDTree_Delete
    heap2mt.o(i._free$realtime$concurrent) refers to fdtree.o(i._FDTree_Insert) for _FDTree_Insert
    heap2mt.o(i._malloc$realtime$concurrent) refers to rt_heap_descriptor_intlibspace.o(.text) for __rt_heap_descriptor
    heap2mt.o(i._malloc$realtime$concurrent) refers to fdtree.o(i._FDTree_FindFirst) for _FDTree_FindFirst
    heap2mt.o(i._malloc$realtime$concurrent) refers to init_alloc.o(.text) for __Heap_Full
    heap2mt.o(i._malloc$realtime$concurrent) refers to fdtree.o(i._FDTree_RemoveNode) for _FDTree_RemoveNode
    heap2mt.o(i._malloc$realtime$concurrent) refers to fdtree.o(i._FDTree_Insert) for _FDTree_Insert
    heap2mt.o(i._posix_memalign$realtime$concurrent) refers to rt_heap_descriptor_intlibspace.o(.text) for __rt_heap_descriptor
    heap2mt.o(i._posix_memalign$realtime$concurrent) refers to fdtree.o(i._FDTree_FindFirst) for _FDTree_FindFirst
    heap2mt.o(i._posix_memalign$realtime$concurrent) refers to init_alloc.o(.text) for __Heap_Full
    heap2mt.o(i._posix_memalign$realtime$concurrent) refers to fdtree.o(i._FDTree_RemoveNode) for _FDTree_RemoveNode
    heap2mt.o(i._posix_memalign$realtime$concurrent) refers to fdtree.o(i._FDTree_Insert) for _FDTree_Insert
    heap2mt.o(i._realloc$realtime$concurrent) refers to rt_heap_descriptor_intlibspace.o(.text) for __rt_heap_descriptor
    heap2mt.o(i._realloc$realtime$concurrent) refers to fdtree.o(i._FDTree_Insert) for _FDTree_Insert
    heap2mt.o(i._realloc$realtime$concurrent) refers to h1_free.o(.text) for free
    heap2mt.o(i._realloc$realtime$concurrent) refers to h1_alloc.o(.text) for malloc
    heap2mt.o(i._realloc$realtime$concurrent) refers to fdtree.o(i._FDTree_Delete) for _FDTree_Delete
    heap2mt.o(i._realloc$realtime$concurrent) refers to rt_memcpy_w.o(.text) for __aeabi_memcpy4
    exit.o(.text) refers to rtexit.o(.ARM.Collect$$rtexit$$00000000) for __rt_exit
    abort.o(.text) refers to defsig_abrt_outer.o(.text) for __rt_SIGABRT
    abort.o(.text) refers (Weak) to libshutdown.o(.ARM.Collect$$libshutdown$$00000000) for __rt_lib_shutdown
    abort.o(.text) refers to sys_exit.o(.text) for _sys_exit
    libinit.o(.ARM.Collect$$libinit$$00000000) refers (Special) to libinit2.o(.ARM.Collect$$libinit$$0000002E) for __rt_lib_init_alloca_1
    libinit.o(.ARM.Collect$$libinit$$00000000) refers (Special) to libinit2.o(.ARM.Collect$$libinit$$0000002C) for __rt_lib_init_argv_1
    libinit.o(.ARM.Collect$$libinit$$00000000) refers (Special) to libinit2.o(.ARM.Collect$$libinit$$0000001B) for __rt_lib_init_atexit_1
    libinit.o(.ARM.Collect$$libinit$$00000000) refers (Special) to libinit2.o(.ARM.Collect$$libinit$$00000021) for __rt_lib_init_clock_1
    libinit.o(.ARM.Collect$$libinit$$00000000) refers (Special) to libinit2.o(.ARM.Collect$$libinit$$00000032) for __rt_lib_init_cpp_1
    libinit.o(.ARM.Collect$$libinit$$00000000) refers (Special) to libinit2.o(.ARM.Collect$$libinit$$00000030) for __rt_lib_init_exceptions_1
    libinit.o(.ARM.Collect$$libinit$$00000000) refers (Special) to libinit2.o(.ARM.Collect$$libinit$$00000001) for __rt_lib_init_fp_1
    libinit.o(.ARM.Collect$$libinit$$00000000) refers (Special) to libinit2.o(.ARM.Collect$$libinit$$0000001F) for __rt_lib_init_fp_trap_1
    libinit.o(.ARM.Collect$$libinit$$00000000) refers (Special) to libinit2.o(.ARM.Collect$$libinit$$00000023) for __rt_lib_init_getenv_1
    libinit.o(.ARM.Collect$$libinit$$00000000) refers (Special) to libinit2.o(.ARM.Collect$$libinit$$0000000A) for __rt_lib_init_heap_1
    libinit.o(.ARM.Collect$$libinit$$00000000) refers (Special) to libinit2.o(.ARM.Collect$$libinit$$00000011) for __rt_lib_init_lc_collate_1
    libinit.o(.ARM.Collect$$libinit$$00000000) refers (Special) to libinit2.o(.ARM.Collect$$libinit$$00000013) for __rt_lib_init_lc_ctype_1
    libinit.o(.ARM.Collect$$libinit$$00000000) refers (Special) to libinit2.o(.ARM.Collect$$libinit$$00000015) for __rt_lib_init_lc_monetary_1
    libinit.o(.ARM.Collect$$libinit$$00000000) refers (Special) to libinit2.o(.ARM.Collect$$libinit$$00000017) for __rt_lib_init_lc_numeric_1
    libinit.o(.ARM.Collect$$libinit$$00000000) refers (Special) to libinit2.o(.ARM.Collect$$libinit$$00000019) for __rt_lib_init_lc_time_1
    libinit.o(.ARM.Collect$$libinit$$00000000) refers (Special) to libinit2.o(.ARM.Collect$$libinit$$00000004) for __rt_lib_init_preinit_1
    libinit.o(.ARM.Collect$$libinit$$00000000) refers (Special) to libinit2.o(.ARM.Collect$$libinit$$0000000E) for __rt_lib_init_rand_1
    libinit.o(.ARM.Collect$$libinit$$00000000) refers (Special) to libinit2.o(.ARM.Collect$$libinit$$00000033) for __rt_lib_init_return
    libinit.o(.ARM.Collect$$libinit$$00000000) refers (Special) to libinit2.o(.ARM.Collect$$libinit$$0000001D) for __rt_lib_init_signal_1
    libinit.o(.ARM.Collect$$libinit$$00000000) refers (Special) to libinit2.o(.ARM.Collect$$libinit$$00000025) for __rt_lib_init_stdio_1
    libinit.o(.ARM.Collect$$libinit$$00000000) refers (Special) to libinit2.o(.ARM.Collect$$libinit$$0000000C) for __rt_lib_init_user_alloc_1
    arm_exceptions_mem.o(.text) refers to h1_alloc.o(.text) for malloc
    arm_exceptions_mem.o(.ARM.exidx) refers to arm_exceptions_mem.o(.text) for .text
    sys_exit.o(.text) refers (Special) to use_no_semi.o(.text) for __I$use$semihosting
    sys_exit.o(.text) refers (Special) to indicate_semi.o(.text) for __semihosting_library_function
    libspace.o(.text) refers to libspace.o(.bss) for __libspace_start
    rtexit.o(.ARM.Collect$$rtexit$$00000000) refers (Special) to rtexit2.o(.ARM.Collect$$rtexit$$00000004) for __rt_exit_exit
    rtexit.o(.ARM.Collect$$rtexit$$00000000) refers (Special) to rtexit2.o(.ARM.Collect$$rtexit$$00000003) for __rt_exit_ls
    rtexit.o(.ARM.Collect$$rtexit$$00000000) refers (Special) to rtexit2.o(.ARM.Collect$$rtexit$$00000002) for __rt_exit_prels_1
    rtexit.o(.ARM.exidx) refers (Special) to rtexit2.o(.ARM.Collect$$rtexit$$00000004) for __rt_exit_exit
    rtexit.o(.ARM.exidx) refers (Special) to rtexit2.o(.ARM.Collect$$rtexit$$00000003) for __rt_exit_ls
    rtexit.o(.ARM.exidx) refers (Special) to rtexit2.o(.ARM.Collect$$rtexit$$00000002) for __rt_exit_prels_1
    rtexit.o(.ARM.exidx) refers to rtexit.o(.ARM.Collect$$rtexit$$00000000) for .ARM.Collect$$rtexit$$00000000
    rt_heap_descriptor.o(.text) refers to rt_heap_descriptor.o(.bss) for __rt_heap_descriptor_data
    rt_heap_descriptor_intlibspace.o(.text) refers to libspace.o(.bss) for __libspace_start
    init_alloc.o(.text) refers (Special) to hguard.o(.text) for __heap$guard
    init_alloc.o(.text) refers (Special) to libinit2.o(.ARM.Collect$$libinit$$00000005) for __rt_lib_init_heap_2
    init_alloc.o(.text) refers (Special) to maybetermalloc1.o(.emb_text) for _maybe_terminate_alloc
    init_alloc.o(.text) refers to h1_extend.o(.text) for __Heap_ProvideMemory
    init_alloc.o(.text) refers to defsig_rtmem_outer.o(.text) for __rt_SIGRTMEM
    init_alloc.o(.text) refers to rt_heap_descriptor_intlibspace.o(.text) for __rt_heap_descriptor
    init_alloc.o(.text) refers to h1_init.o(.text) for __Heap_Initialize
    free.o(.text) refers (Special) to hguard.o(.text) for __heap$guard
    free.o(.text) refers to rt_heap_descriptor_intlibspace.o(.text) for __rt_heap_descriptor
    free.o(.text) refers to heapstubs.o(.text) for __Heap_Free
    h1_free.o(.text) refers to rt_heap_descriptor_intlibspace.o(.text) for __rt_heap_descriptor
    h1_init_mt.o(.text) refers to mutex_dummy.o(.text) for _mutex_initialize
    h1_free_mt.o(.text) refers to rt_heap_descriptor_intlibspace.o(.text) for __rt_heap_descriptor
    defsig_abrt_outer.o(.text) refers to defsig_abrt_inner.o(.text) for __rt_SIGABRT_inner
    defsig_abrt_outer.o(.text) refers to defsig_exit.o(.text) for __sig_exit
    defsig_abrt_formal.o(.text) refers to rt_raise.o(.text) for __rt_raise
    _get_argv.o(.text) refers (Special) to hrguard.o(.text) for __heap_region$guard
    _get_argv.o(.text) refers to h1_alloc.o(.text) for malloc
    _get_argv.o(.text) refers to defsig_rtmem_outer.o(.text) for __rt_SIGRTMEM
    _get_argv.o(.text) refers to sys_command.o(.text) for _sys_command_string
    libinit2.o(.ARM.Collect$$libinit$$00000001) refers to fpinit.o(x$fpl$fpinit) for _fp_init
    libinit2.o(.ARM.Collect$$libinit$$00000005) refers (Weak) to init_alloc.o(.text) for _init_alloc
    libinit2.o(.ARM.Collect$$libinit$$00000010) refers to libinit2.o(.ARM.Collect$$libinit$$0000000F) for .ARM.Collect$$libinit$$0000000F
    libinit2.o(.ARM.Collect$$libinit$$00000012) refers to libinit2.o(.ARM.Collect$$libinit$$0000000F) for .ARM.Collect$$libinit$$0000000F
    libinit2.o(.ARM.Collect$$libinit$$00000014) refers to libinit2.o(.ARM.Collect$$libinit$$0000000F) for .ARM.Collect$$libinit$$0000000F
    libinit2.o(.ARM.Collect$$libinit$$00000016) refers to libinit2.o(.ARM.Collect$$libinit$$0000000F) for .ARM.Collect$$libinit$$0000000F
    libinit2.o(.ARM.Collect$$libinit$$00000018) refers to libinit2.o(.ARM.Collect$$libinit$$0000000F) for .ARM.Collect$$libinit$$0000000F
    libinit2.o(.ARM.Collect$$libinit$$00000026) refers to argv_veneer.o(.emb_text) for __ARM_argv_veneer
    libinit2.o(.ARM.Collect$$libinit$$00000027) refers to argv_veneer.o(.emb_text) for __ARM_argv_veneer
    sys_command.o(.text) refers (Special) to use_no_semi.o(.text) for __I$use$semihosting
    sys_command.o(.text) refers (Special) to indicate_semi.o(.text) for __semihosting_library_function
    rtexit2.o(.ARM.Collect$$rtexit$$00000003) refers to libshutdown.o(.ARM.Collect$$libshutdown$$00000000) for __rt_lib_shutdown
    rtexit2.o(.ARM.Collect$$rtexit$$00000004) refers to sys_exit.o(.text) for _sys_exit
    rtexit2.o(.ARM.exidx) refers to rtexit2.o(.ARM.Collect$$rtexit$$00000001) for .ARM.Collect$$rtexit$$00000001
    rtexit2.o(.ARM.exidx) refers to rtexit2.o(.ARM.Collect$$rtexit$$00000003) for .ARM.Collect$$rtexit$$00000003
    rtexit2.o(.ARM.exidx) refers to rtexit2.o(.ARM.Collect$$rtexit$$00000004) for .ARM.Collect$$rtexit$$00000004
    rt_raise.o(.text) refers to __raise.o(.text) for __raise
    rt_raise.o(.text) refers to sys_exit.o(.text) for _sys_exit
    maybetermalloc2.o(.emb_text) refers (Special) to term_alloc.o(.text) for _terminate_alloc
    h1_extend.o(.text) refers to h1_free.o(.text) for free
    h1_extend_mt.o(.text) refers to h1_free_mt.o(.text) for _free_internal
    defsig_exit.o(.text) refers to sys_exit.o(.text) for _sys_exit
    defsig_abrt_inner.o(.text) refers to defsig_general.o(.text) for __default_signal_display
    defsig_rtmem_outer.o(.text) refers to defsig_rtmem_inner.o(.text) for __rt_SIGRTMEM_inner
    defsig_rtmem_outer.o(.text) refers to defsig_exit.o(.text) for __sig_exit
    defsig_rtmem_formal.o(.text) refers to rt_raise.o(.text) for __rt_raise
    heapauxa.o(.text) refers to heapauxa.o(.data) for .data
    argv_veneer.o(.emb_text) refers to no_argv.o(.text) for __ARM_get_argv
    term_alloc.o(.text) refers (Special) to libshutdown2.o(.ARM.Collect$$libshutdown$$0000000E) for __rt_lib_shutdown_heap_2
    term_alloc.o(.text) refers to rt_heap_descriptor_intlibspace.o(.text) for __rt_heap_descriptor
    term_alloc.o(.text) refers to h1_final.o(.text) for __Heap_Finalize
    __raise.o(.text) refers to defsig.o(CL$$defsig) for __default_signal_handler
    defsig_general.o(.text) refers to sys_wrch.o(.text) for _ttywrch
    defsig_rtmem_inner.o(.text) refers to defsig_general.o(.text) for __default_signal_display
    _get_argv_nomalloc.o(.text) refers (Special) to hrguard.o(.text) for __heap_region$guard
    _get_argv_nomalloc.o(.text) refers to defsig_rtmem_outer.o(.text) for __rt_SIGRTMEM
    _get_argv_nomalloc.o(.text) refers to sys_command.o(.text) for _sys_command_string
    libshutdown.o(.ARM.Collect$$libshutdown$$00000000) refers (Special) to libshutdown2.o(.ARM.Collect$$libshutdown$$00000002) for __rt_lib_shutdown_cpp_1
    libshutdown.o(.ARM.Collect$$libshutdown$$00000000) refers (Special) to libshutdown2.o(.ARM.Collect$$libshutdown$$00000007) for __rt_lib_shutdown_fp_trap_1
    libshutdown.o(.ARM.Collect$$libshutdown$$00000000) refers (Special) to libshutdown2.o(.ARM.Collect$$libshutdown$$0000000F) for __rt_lib_shutdown_heap_1
    libshutdown.o(.ARM.Collect$$libshutdown$$00000000) refers (Special) to libshutdown2.o(.ARM.Collect$$libshutdown$$00000010) for __rt_lib_shutdown_return
    libshutdown.o(.ARM.Collect$$libshutdown$$00000000) refers (Special) to libshutdown2.o(.ARM.Collect$$libshutdown$$0000000A) for __rt_lib_shutdown_signal_1
    libshutdown.o(.ARM.Collect$$libshutdown$$00000000) refers (Special) to libshutdown2.o(.ARM.Collect$$libshutdown$$00000004) for __rt_lib_shutdown_stdio_1
    libshutdown.o(.ARM.Collect$$libshutdown$$00000000) refers (Special) to libshutdown2.o(.ARM.Collect$$libshutdown$$0000000C) for __rt_lib_shutdown_user_alloc_1
    sys_wrch.o(.text) refers (Special) to use_no_semi.o(.text) for __I$use$semihosting
    sys_wrch.o(.text) refers (Special) to indicate_semi.o(.text) for __semihosting_library_function
    defsig.o(CL$$defsig) refers to defsig_abrt_inner.o(.text) for __rt_SIGABRT_inner
    defsig.o(CL$$defsig) refers to defsig_rtmem_inner.o(.text) for __rt_SIGRTMEM_inner
    libshutdown2.o(.ARM.Collect$$libshutdown$$0000000D) refers (Weak) to term_alloc.o(.text) for _terminate_alloc
    defsig_fpe_inner.o(.text) refers to defsig_general.o(.text) for __default_signal_display
    defsig_rtred_inner.o(.text) refers to defsig_general.o(.text) for __default_signal_display
    defsig_stak_inner.o(.text) refers to defsig_general.o(.text) for __default_signal_display
    defsig_pvfn_inner.o(.text) refers to defsig_general.o(.text) for __default_signal_display
    defsig_cppl_inner.o(.text) refers to defsig_general.o(.text) for __default_signal_display
    defsig_segv_inner.o(.text) refers to defsig_general.o(.text) for __default_signal_display
    defsig_other.o(.text) refers to defsig_general.o(.text) for __default_signal_display
    main.o(i._ZN6Device7goIddleEv) refers to device.o(i._Z10__delay_nsi) for __delay_ns(int)
    main.o(i._ZN6Device7goIddleEv) refers to gpio.o(i._Z14gpio_pin_resetP12GPIO_TypeDefj) for gpio_pin_reset(GPIO_TypeDef*, unsigned)
    main.o(.ARM.exidx) refers to main.o(i._ZN6Device7goIddleEv) for i._ZN6Device7goIddleEv
    main.o(i._ZN6DeviceC1Ev) refers to init.o(i._Z9core_initv) for core_init()
    main.o(i._ZN6DeviceC1Ev) refers to init.o(i._Z12clock_enablev) for clock_enable()
    main.o(i._ZN6DeviceC1Ev) refers to init.o(i._Z9gpio_initv) for gpio_init()
    main.o(i._ZN6DeviceC1Ev) refers to init.o(i._Z8spi_initv) for spi_init()
    main.o(i._ZN6DeviceC1Ev) refers to stm32f7xx_hal.o(i.HAL_Delay) for HAL_Delay
    main.o(i._ZN6DeviceC1Ev) refers to gpio.o(i._Z12gpio_pin_setP12GPIO_TypeDefj) for gpio_pin_set(GPIO_TypeDef*, unsigned)
    main.o(i._ZN6DeviceC1Ev) refers to init.o(i._Z17SPI_Enc28j60_Initv) for SPI_Enc28j60_Init()
    main.o(i._ZN6DeviceC1Ev) refers to cxa_guard_acquire.o(i.__cxa_guard_acquire) for __cxa_guard_acquire
    main.o(i._ZN6DeviceC1Ev) refers to main.o(i._ZN6Device7goIddleEv) for Device::goIddle()
    main.o(i._ZN6DeviceC1Ev) refers to device.o(i._Z10__delay_msi) for __delay_ms(int)
    main.o(i._ZN6DeviceC1Ev) refers to main.o(.constdata__ZTV12SynchronizerI11StepMotorABE) for vtable for Synchronizer<StepMotorAB>
    main.o(i._ZN6DeviceC1Ev) refers to device.o(.constdata__ZTV11StepMotorAB) for vtable for StepMotorAB
    main.o(i._ZN6DeviceC1Ev) refers to main.o(.data__ZZN6DeviceC1EvE3web) for guard variable for Device::Device()::web
    main.o(i._ZN6DeviceC1Ev) refers to web_interface.o(.data) for __wFace
    main.o(.ARM.exidx) refers to main.o(i._ZN6DeviceC1Ev) for i._ZN6DeviceC1Ev
    main.o(.constdata__ZTV12SynchronizerI11StepMotorABE) refers to main.o(.constdata__ZTI12SynchronizerI11StepMotorABE) for typeinfo for Synchronizer<StepMotorAB>
    main.o(.constdata__ZTV12SynchronizerI11StepMotorABE) refers to main.o(t._ZN12SynchronizerI11StepMotorABE9syncFetchERS0_) for Synchronizer<StepMotorAB>::syncFetch(StepMotorAB&)
    main.o(.constdata__ZTV12SynchronizerI11StepMotorABE) refers to main.o(t._ZN12SynchronizerI11StepMotorABE9syncFetchEPS0_) for Synchronizer<StepMotorAB>::syncFetch(StepMotorAB*)
    main.o(.constdata__ZTV12SynchronizerI11StepMotorABE) refers to main.o(t._ZN12SynchronizerI11StepMotorABE11syncReleaseERS0_) for Synchronizer<StepMotorAB>::syncRelease(StepMotorAB&)
    main.o(.constdata__ZTV12SynchronizerI11StepMotorABE) refers to main.o(t._ZN12SynchronizerI11StepMotorABE11syncReleaseEPS0_) for Synchronizer<StepMotorAB>::syncRelease(StepMotorAB*)
    main.o(.constdata__ZTI12SynchronizerI11StepMotorABE) refers to lib_rtti_impl.o(.constdata__ZTVN10__cxxabiv117__class_type_infoE) for vtable for __cxxabiv1::__class_type_info
    main.o(.constdata__ZTI12SynchronizerI11StepMotorABE) refers to main.o(.constdata__ZTS12SynchronizerI11StepMotorABE) for typeinfo name for Synchronizer<StepMotorAB>
    main.o(.ARM.exidx) refers to main.o(t._ZN12SynchronizerI11StepMotorABE9syncFetchERS0_) for t._ZN12SynchronizerI11StepMotorABE9syncFetchERS0_
    main.o(.ARM.exidx) refers to main.o(t._ZN12SynchronizerI11StepMotorABE9syncFetchEPS0_) for t._ZN12SynchronizerI11StepMotorABE9syncFetchEPS0_
    main.o(.ARM.exidx) refers to main.o(t._ZN12SynchronizerI11StepMotorABE11syncReleaseERS0_) for t._ZN12SynchronizerI11StepMotorABE11syncReleaseERS0_
    main.o(.ARM.exidx) refers to main.o(t._ZN12SynchronizerI11StepMotorABE11syncReleaseEPS0_) for t._ZN12SynchronizerI11StepMotorABE11syncReleaseEPS0_
    device.o(.constdata__ZTV11StepMotorAB) refers to device.o(.constdata__ZTI11StepMotorAB) for typeinfo for StepMotorAB
    device.o(.constdata__ZTV11StepMotorAB) refers to main.o(t._ZN12SynchronizerI11StepMotorABE9syncFetchERS0_) for Synchronizer<StepMotorAB>::syncFetch(StepMotorAB&)
    device.o(.constdata__ZTV11StepMotorAB) refers to main.o(t._ZN12SynchronizerI11StepMotorABE9syncFetchEPS0_) for Synchronizer<StepMotorAB>::syncFetch(StepMotorAB*)
    device.o(.constdata__ZTV11StepMotorAB) refers to main.o(t._ZN12SynchronizerI11StepMotorABE11syncReleaseERS0_) for Synchronizer<StepMotorAB>::syncRelease(StepMotorAB&)
    device.o(.constdata__ZTV11StepMotorAB) refers to main.o(t._ZN12SynchronizerI11StepMotorABE11syncReleaseEPS0_) for Synchronizer<StepMotorAB>::syncRelease(StepMotorAB*)
    device.o(.constdata__ZTV11StepMotorAB) refers to device.o(i._ZN11StepMotorAB6HLInitEv) for StepMotorAB::HLInit()
    device.o(.constdata__ZTV11StepMotorAB) refers to device.o(i._ZN11StepMotorAB8HLDeInitEv) for StepMotorAB::HLDeInit()
    device.o(.constdata__ZTV11StepMotorAB) refers to device.o(i._ZN11StepMotorAB13setCoilAPhaseEi) for StepMotorAB::setCoilAPhase(int)
    device.o(.constdata__ZTV11StepMotorAB) refers to device.o(i._ZN11StepMotorAB13setCoilBPhaseEi) for StepMotorAB::setCoilBPhase(int)
    device.o(.constdata__ZTI11StepMotorAB) refers to lib_rtti_impl.o(.constdata__ZTVN10__cxxabiv120__si_class_type_infoE) for vtable for __cxxabiv1::__si_class_type_info
    device.o(.constdata__ZTI11StepMotorAB) refers to device.o(.constdata__ZTS11StepMotorAB) for typeinfo name for StepMotorAB
    device.o(.constdata__ZTI11StepMotorAB) refers to main.o(.constdata__ZTI12SynchronizerI11StepMotorABE) for typeinfo for Synchronizer<StepMotorAB>
    phy_mac_interface.o(.constdata__ZTV15PhyMacInterface) refers to phy_mac_interface.o(.constdata__ZTI15PhyMacInterface) for typeinfo for PhyMacInterface
    phy_mac_interface.o(.constdata__ZTV15PhyMacInterface) refers to phy_mac_interface.o(t._ZN12SynchronizerI15PhyMacInterfaceE9syncFetchERS0_) for Synchronizer<PhyMacInterface>::syncFetch(PhyMacInterface&)
    phy_mac_interface.o(.constdata__ZTV15PhyMacInterface) refers to phy_mac_interface.o(t._ZN12SynchronizerI15PhyMacInterfaceE9syncFetchEPS0_) for Synchronizer<PhyMacInterface>::syncFetch(PhyMacInterface*)
    phy_mac_interface.o(.constdata__ZTV15PhyMacInterface) refers to phy_mac_interface.o(t._ZN12SynchronizerI15PhyMacInterfaceE11syncReleaseERS0_) for Synchronizer<PhyMacInterface>::syncRelease(PhyMacInterface&)
    phy_mac_interface.o(.constdata__ZTV15PhyMacInterface) refers to phy_mac_interface.o(t._ZN12SynchronizerI15PhyMacInterfaceE11syncReleaseEPS0_) for Synchronizer<PhyMacInterface>::syncRelease(PhyMacInterface*)
    phy_mac_interface.o(.constdata__ZTV15PhyMacInterface) refers to phy_mac_interface.o(i._ZN15PhyMacInterface7mcuInitEPh) for PhyMacInterface::mcuInit(unsigned char*)
    phy_mac_interface.o(.constdata__ZTV15PhyMacInterface) refers to phy_mac_interface.o(i._ZN15PhyMacInterface17chipPacketReceiveEjPh) for PhyMacInterface::chipPacketReceive(unsigned, unsigned char*)
    phy_mac_interface.o(.ARM.exidx) refers to phy_mac_interface.o(t._ZN12SynchronizerI15PhyMacInterfaceE9syncFetchERS0_) for t._ZN12SynchronizerI15PhyMacInterfaceE9syncFetchERS0_
    phy_mac_interface.o(.ARM.exidx) refers to phy_mac_interface.o(t._ZN12SynchronizerI15PhyMacInterfaceE9syncFetchEPS0_) for t._ZN12SynchronizerI15PhyMacInterfaceE9syncFetchEPS0_
    phy_mac_interface.o(.ARM.exidx) refers to phy_mac_interface.o(t._ZN12SynchronizerI15PhyMacInterfaceE11syncReleaseERS0_) for t._ZN12SynchronizerI15PhyMacInterfaceE11syncReleaseERS0_
    phy_mac_interface.o(.ARM.exidx) refers to phy_mac_interface.o(t._ZN12SynchronizerI15PhyMacInterfaceE11syncReleaseEPS0_) for t._ZN12SynchronizerI15PhyMacInterfaceE11syncReleaseEPS0_
    phy_mac_interface.o(.constdata__ZTI15PhyMacInterface) refers to lib_rtti_impl.o(.constdata__ZTVN10__cxxabiv120__si_class_type_infoE) for vtable for __cxxabiv1::__si_class_type_info
    phy_mac_interface.o(.constdata__ZTI15PhyMacInterface) refers to phy_mac_interface.o(.constdata__ZTS15PhyMacInterface) for typeinfo name for PhyMacInterface
    phy_mac_interface.o(.constdata__ZTI15PhyMacInterface) refers to phy_mac_interface.o(.constdata__ZTI12SynchronizerI15PhyMacInterfaceE) for typeinfo for Synchronizer<PhyMacInterface>
    phy_mac_interface.o(.constdata__ZTI12SynchronizerI15PhyMacInterfaceE) refers to lib_rtti_impl.o(.constdata__ZTVN10__cxxabiv117__class_type_infoE) for vtable for __cxxabiv1::__class_type_info
    phy_mac_interface.o(.constdata__ZTI12SynchronizerI15PhyMacInterfaceE) refers to phy_mac_interface.o(.constdata__ZTS12SynchronizerI15PhyMacInterfaceE) for typeinfo name for Synchronizer<PhyMacInterface>
    web_server.o(.constdata__ZTV12SynchronizerI15PhyMacInterfaceE) refers to phy_mac_interface.o(.constdata__ZTI12SynchronizerI15PhyMacInterfaceE) for typeinfo for Synchronizer<PhyMacInterface>
    web_server.o(.constdata__ZTV12SynchronizerI15PhyMacInterfaceE) refers to phy_mac_interface.o(t._ZN12SynchronizerI15PhyMacInterfaceE9syncFetchERS0_) for Synchronizer<PhyMacInterface>::syncFetch(PhyMacInterface&)
    web_server.o(.constdata__ZTV12SynchronizerI15PhyMacInterfaceE) refers to phy_mac_interface.o(t._ZN12SynchronizerI15PhyMacInterfaceE9syncFetchEPS0_) for Synchronizer<PhyMacInterface>::syncFetch(PhyMacInterface*)
    web_server.o(.constdata__ZTV12SynchronizerI15PhyMacInterfaceE) refers to phy_mac_interface.o(t._ZN12SynchronizerI15PhyMacInterfaceE11syncReleaseERS0_) for Synchronizer<PhyMacInterface>::syncRelease(PhyMacInterface&)
    web_server.o(.constdata__ZTV12SynchronizerI15PhyMacInterfaceE) refers to phy_mac_interface.o(t._ZN12SynchronizerI15PhyMacInterfaceE11syncReleaseEPS0_) for Synchronizer<PhyMacInterface>::syncRelease(PhyMacInterface*)
    lib_rtti_impl.o(.constdata__ZTVN10__cxxabiv123__fundamental_type_infoE) refers to lib_rtti_impl.o(.constdata__ZTIN10__cxxabiv123__fundamental_type_infoE) for typeinfo for __cxxabiv1::__fundamental_type_info
    lib_rtti_impl.o(.constdata__ZTVN10__cxxabiv123__fundamental_type_infoE) refers to lib_rtti_impl.o(i._ZN10__cxxabiv123__fundamental_type_infoD1Ev) for __cxxabiv1::__fundamental_type_info::~__fundamental_type_info()
    lib_rtti_impl.o(.constdata__ZTVN10__cxxabiv123__fundamental_type_infoE) refers to lib_rtti_impl.o(i._ZN10__cxxabiv123__fundamental_type_infoD0Ev) for __cxxabiv1::__fundamental_type_info::~__fundamental_type_info__deallocating()
    lib_rtti_impl.o(.constdata__ZTVN10__cxxabiv117__array_type_infoE) refers to lib_rtti_impl.o(.constdata__ZTIN10__cxxabiv117__array_type_infoE) for typeinfo for __cxxabiv1::__array_type_info
    lib_rtti_impl.o(.constdata__ZTVN10__cxxabiv117__array_type_infoE) refers to lib_rtti_impl.o(i._ZN10__cxxabiv117__array_type_infoD1Ev) for __cxxabiv1::__array_type_info::~__array_type_info()
    lib_rtti_impl.o(.constdata__ZTVN10__cxxabiv117__array_type_infoE) refers to lib_rtti_impl.o(i._ZN10__cxxabiv117__array_type_infoD0Ev) for __cxxabiv1::__array_type_info::~__array_type_info__deallocating()
    lib_rtti_impl.o(.constdata__ZTVN10__cxxabiv120__function_type_infoE) refers to lib_rtti_impl.o(.constdata__ZTIN10__cxxabiv120__function_type_infoE) for typeinfo for __cxxabiv1::__function_type_info
    lib_rtti_impl.o(.constdata__ZTVN10__cxxabiv120__function_type_infoE) refers to lib_rtti_impl.o(i._ZN10__cxxabiv120__function_type_infoD1Ev) for __cxxabiv1::__function_type_info::~__function_type_info()
    lib_rtti_impl.o(.constdata__ZTVN10__cxxabiv120__function_type_infoE) refers to lib_rtti_impl.o(i._ZN10__cxxabiv120__function_type_infoD0Ev) for __cxxabiv1::__function_type_info::~__function_type_info__deallocating()
    lib_rtti_impl.o(.constdata__ZTVN10__cxxabiv116__enum_type_infoE) refers to lib_rtti_impl.o(.constdata__ZTIN10__cxxabiv116__enum_type_infoE) for typeinfo for __cxxabiv1::__enum_type_info
    lib_rtti_impl.o(.constdata__ZTVN10__cxxabiv116__enum_type_infoE) refers to lib_rtti_impl.o(i._ZN10__cxxabiv116__enum_type_infoD1Ev) for __cxxabiv1::__enum_type_info::~__enum_type_info()
    lib_rtti_impl.o(.constdata__ZTVN10__cxxabiv116__enum_type_infoE) refers to lib_rtti_impl.o(i._ZN10__cxxabiv116__enum_type_infoD0Ev) for __cxxabiv1::__enum_type_info::~__enum_type_info__deallocating()
    lib_rtti_impl.o(.constdata__ZTVN10__cxxabiv117__class_type_infoE) refers to lib_rtti_impl.o(.constdata__ZTIN10__cxxabiv117__class_type_infoE) for typeinfo for __cxxabiv1::__class_type_info
    lib_rtti_impl.o(.constdata__ZTVN10__cxxabiv117__class_type_infoE) refers to lib_rtti_impl.o(i._ZN10__cxxabiv117__class_type_infoD1Ev) for __cxxabiv1::__class_type_info::~__class_type_info()
    lib_rtti_impl.o(.constdata__ZTVN10__cxxabiv117__class_type_infoE) refers to lib_rtti_impl.o(i._ZN10__cxxabiv117__class_type_infoD0Ev) for __cxxabiv1::__class_type_info::~__class_type_info__deallocating()
    lib_rtti_impl.o(.constdata__ZTVN10__cxxabiv120__si_class_type_infoE) refers to lib_rtti_impl.o(.constdata__ZTIN10__cxxabiv120__si_class_type_infoE) for typeinfo for __cxxabiv1::__si_class_type_info
    lib_rtti_impl.o(.constdata__ZTVN10__cxxabiv120__si_class_type_infoE) refers to lib_rtti_impl.o(i._ZN10__cxxabiv120__si_class_type_infoD1Ev) for __cxxabiv1::__si_class_type_info::~__si_class_type_info()
    lib_rtti_impl.o(.constdata__ZTVN10__cxxabiv120__si_class_type_infoE) refers to lib_rtti_impl.o(i._ZN10__cxxabiv120__si_class_type_infoD0Ev) for __cxxabiv1::__si_class_type_info::~__si_class_type_info__deallocating()
    lib_rtti_impl.o(.constdata__ZTVN10__cxxabiv121__vmi_class_type_infoE) refers to lib_rtti_impl.o(.constdata__ZTIN10__cxxabiv121__vmi_class_type_infoE) for typeinfo for __cxxabiv1::__vmi_class_type_info
    lib_rtti_impl.o(.constdata__ZTVN10__cxxabiv121__vmi_class_type_infoE) refers to lib_rtti_impl.o(i._ZN10__cxxabiv121__vmi_class_type_infoD1Ev) for __cxxabiv1::__vmi_class_type_info::~__vmi_class_type_info()
    lib_rtti_impl.o(.constdata__ZTVN10__cxxabiv121__vmi_class_type_infoE) refers to lib_rtti_impl.o(i._ZN10__cxxabiv121__vmi_class_type_infoD0Ev) for __cxxabiv1::__vmi_class_type_info::~__vmi_class_type_info__deallocating()
    lib_rtti_impl.o(.constdata__ZTVN10__cxxabiv117__pbase_type_infoE) refers to lib_rtti_impl.o(.constdata__ZTIN10__cxxabiv117__pbase_type_infoE) for typeinfo for __cxxabiv1::__pbase_type_info
    lib_rtti_impl.o(.constdata__ZTVN10__cxxabiv117__pbase_type_infoE) refers to lib_rtti_impl.o(i._ZN10__cxxabiv117__pbase_type_infoD1Ev) for __cxxabiv1::__pbase_type_info::~__pbase_type_info()
    lib_rtti_impl.o(.constdata__ZTVN10__cxxabiv117__pbase_type_infoE) refers to lib_rtti_impl.o(i._ZN10__cxxabiv117__pbase_type_infoD0Ev) for __cxxabiv1::__pbase_type_info::~__pbase_type_info__deallocating()
    lib_rtti_impl.o(.constdata__ZTVN10__cxxabiv119__pointer_type_infoE) refers to lib_rtti_impl.o(.constdata__ZTIN10__cxxabiv119__pointer_type_infoE) for typeinfo for __cxxabiv1::__pointer_type_info
    lib_rtti_impl.o(.constdata__ZTVN10__cxxabiv119__pointer_type_infoE) refers to lib_rtti_impl.o(i._ZN10__cxxabiv119__pointer_type_infoD1Ev) for __cxxabiv1::__pointer_type_info::~__pointer_type_info()
    lib_rtti_impl.o(.constdata__ZTVN10__cxxabiv119__pointer_type_infoE) refers to lib_rtti_impl.o(i._ZN10__cxxabiv119__pointer_type_infoD0Ev) for __cxxabiv1::__pointer_type_info::~__pointer_type_info__deallocating()
    lib_rtti_impl.o(.constdata__ZTVN10__cxxabiv129__pointer_to_member_type_infoE) refers to lib_rtti_impl.o(.constdata__ZTIN10__cxxabiv129__pointer_to_member_type_infoE) for typeinfo for __cxxabiv1::__pointer_to_member_type_info
    lib_rtti_impl.o(.constdata__ZTVN10__cxxabiv129__pointer_to_member_type_infoE) refers to lib_rtti_impl.o(i._ZN10__cxxabiv129__pointer_to_member_type_infoD1Ev) for __cxxabiv1::__pointer_to_member_type_info::~__pointer_to_member_type_info()
    lib_rtti_impl.o(.constdata__ZTVN10__cxxabiv129__pointer_to_member_type_infoE) refers to lib_rtti_impl.o(i._ZN10__cxxabiv129__pointer_to_member_type_infoD0Ev) for __cxxabiv1::__pointer_to_member_type_info::~__pointer_to_member_type_info__deallocating()
    lib_rtti_impl.o(.ARM.exidx) refers to lib_rtti_impl.o(i._ZNSt9type_infodlEPv) for i._ZNSt9type_infodlEPv
    lib_rtti_impl.o(.constdata__ZTIN10__cxxabiv123__fundamental_type_infoE) refers to lib_rtti_impl.o(.constdata__ZTVN10__cxxabiv120__si_class_type_infoE) for vtable for __cxxabiv1::__si_class_type_info
    lib_rtti_impl.o(.constdata__ZTIN10__cxxabiv123__fundamental_type_infoE) refers to lib_rtti_impl.o(.constdata__ZTSN10__cxxabiv123__fundamental_type_infoE) for typeinfo name for __cxxabiv1::__fundamental_type_info
    lib_rtti_impl.o(.constdata__ZTIN10__cxxabiv123__fundamental_type_infoE) refers to type_info_dtor.o(.constdata__ZTISt9type_info) for typeinfo for std::type_info
    lib_rtti_impl.o(.constdata__ZTIN10__cxxabiv117__array_type_infoE) refers to lib_rtti_impl.o(.constdata__ZTVN10__cxxabiv120__si_class_type_infoE) for vtable for __cxxabiv1::__si_class_type_info
    lib_rtti_impl.o(.constdata__ZTIN10__cxxabiv117__array_type_infoE) refers to lib_rtti_impl.o(.constdata__ZTSN10__cxxabiv117__array_type_infoE) for typeinfo name for __cxxabiv1::__array_type_info
    lib_rtti_impl.o(.constdata__ZTIN10__cxxabiv117__array_type_infoE) refers to type_info_dtor.o(.constdata__ZTISt9type_info) for typeinfo for std::type_info
    lib_rtti_impl.o(.constdata__ZTIN10__cxxabiv120__function_type_infoE) refers to lib_rtti_impl.o(.constdata__ZTVN10__cxxabiv120__si_class_type_infoE) for vtable for __cxxabiv1::__si_class_type_info
    lib_rtti_impl.o(.constdata__ZTIN10__cxxabiv120__function_type_infoE) refers to lib_rtti_impl.o(.constdata__ZTSN10__cxxabiv120__function_type_infoE) for typeinfo name for __cxxabiv1::__function_type_info
    lib_rtti_impl.o(.constdata__ZTIN10__cxxabiv120__function_type_infoE) refers to type_info_dtor.o(.constdata__ZTISt9type_info) for typeinfo for std::type_info
    lib_rtti_impl.o(.constdata__ZTIN10__cxxabiv116__enum_type_infoE) refers to lib_rtti_impl.o(.constdata__ZTVN10__cxxabiv120__si_class_type_infoE) for vtable for __cxxabiv1::__si_class_type_info
    lib_rtti_impl.o(.constdata__ZTIN10__cxxabiv116__enum_type_infoE) refers to lib_rtti_impl.o(.constdata__ZTSN10__cxxabiv116__enum_type_infoE) for typeinfo name for __cxxabiv1::__enum_type_info
    lib_rtti_impl.o(.constdata__ZTIN10__cxxabiv116__enum_type_infoE) refers to type_info_dtor.o(.constdata__ZTISt9type_info) for typeinfo for std::type_info
    lib_rtti_impl.o(.constdata__ZTIN10__cxxabiv117__class_type_infoE) refers to lib_rtti_impl.o(.constdata__ZTVN10__cxxabiv120__si_class_type_infoE) for vtable for __cxxabiv1::__si_class_type_info
    lib_rtti_impl.o(.constdata__ZTIN10__cxxabiv117__class_type_infoE) refers to lib_rtti_impl.o(.constdata__ZTSN10__cxxabiv117__class_type_infoE) for typeinfo name for __cxxabiv1::__class_type_info
    lib_rtti_impl.o(.constdata__ZTIN10__cxxabiv117__class_type_infoE) refers to type_info_dtor.o(.constdata__ZTISt9type_info) for typeinfo for std::type_info
    lib_rtti_impl.o(.constdata__ZTIN10__cxxabiv120__si_class_type_infoE) refers to lib_rtti_impl.o(.constdata__ZTVN10__cxxabiv120__si_class_type_infoE) for vtable for __cxxabiv1::__si_class_type_info
    lib_rtti_impl.o(.constdata__ZTIN10__cxxabiv120__si_class_type_infoE) refers to lib_rtti_impl.o(.constdata__ZTSN10__cxxabiv120__si_class_type_infoE) for typeinfo name for __cxxabiv1::__si_class_type_info
    lib_rtti_impl.o(.constdata__ZTIN10__cxxabiv120__si_class_type_infoE) refers to lib_rtti_impl.o(.constdata__ZTIN10__cxxabiv117__class_type_infoE) for typeinfo for __cxxabiv1::__class_type_info
    lib_rtti_impl.o(.constdata__ZTIN10__cxxabiv121__vmi_class_type_infoE) refers to lib_rtti_impl.o(.constdata__ZTVN10__cxxabiv120__si_class_type_infoE) for vtable for __cxxabiv1::__si_class_type_info
    lib_rtti_impl.o(.constdata__ZTIN10__cxxabiv121__vmi_class_type_infoE) refers to lib_rtti_impl.o(.constdata__ZTSN10__cxxabiv121__vmi_class_type_infoE) for typeinfo name for __cxxabiv1::__vmi_class_type_info
    lib_rtti_impl.o(.constdata__ZTIN10__cxxabiv121__vmi_class_type_infoE) refers to lib_rtti_impl.o(.constdata__ZTIN10__cxxabiv117__class_type_infoE) for typeinfo for __cxxabiv1::__class_type_info
    lib_rtti_impl.o(.constdata__ZTIN10__cxxabiv117__pbase_type_infoE) refers to lib_rtti_impl.o(.constdata__ZTVN10__cxxabiv120__si_class_type_infoE) for vtable for __cxxabiv1::__si_class_type_info
    lib_rtti_impl.o(.constdata__ZTIN10__cxxabiv117__pbase_type_infoE) refers to lib_rtti_impl.o(.constdata__ZTSN10__cxxabiv117__pbase_type_infoE) for typeinfo name for __cxxabiv1::__pbase_type_info
    lib_rtti_impl.o(.constdata__ZTIN10__cxxabiv117__pbase_type_infoE) refers to type_info_dtor.o(.constdata__ZTISt9type_info) for typeinfo for std::type_info
    lib_rtti_impl.o(.constdata__ZTIN10__cxxabiv119__pointer_type_infoE) refers to lib_rtti_impl.o(.constdata__ZTVN10__cxxabiv120__si_class_type_infoE) for vtable for __cxxabiv1::__si_class_type_info
    lib_rtti_impl.o(.constdata__ZTIN10__cxxabiv119__pointer_type_infoE) refers to lib_rtti_impl.o(.constdata__ZTSN10__cxxabiv119__pointer_type_infoE) for typeinfo name for __cxxabiv1::__pointer_type_info
    lib_rtti_impl.o(.constdata__ZTIN10__cxxabiv119__pointer_type_infoE) refers to lib_rtti_impl.o(.constdata__ZTIN10__cxxabiv117__pbase_type_infoE) for typeinfo for __cxxabiv1::__pbase_type_info
    lib_rtti_impl.o(.constdata__ZTIN10__cxxabiv129__pointer_to_member_type_infoE) refers to lib_rtti_impl.o(.constdata__ZTVN10__cxxabiv120__si_class_type_infoE) for vtable for __cxxabiv1::__si_class_type_info
    lib_rtti_impl.o(.constdata__ZTIN10__cxxabiv129__pointer_to_member_type_infoE) refers to lib_rtti_impl.o(.constdata__ZTSN10__cxxabiv129__pointer_to_member_type_infoE) for typeinfo name for __cxxabiv1::__pointer_to_member_type_info
    lib_rtti_impl.o(.constdata__ZTIN10__cxxabiv129__pointer_to_member_type_infoE) refers to lib_rtti_impl.o(.constdata__ZTIN10__cxxabiv117__pbase_type_infoE) for typeinfo for __cxxabiv1::__pbase_type_info
    lib_rtti_impl.o(i.__ARM_common_noexcept_landing) refers to arm_exceptions_callterm.o(.text) for __cxa_call_terminate
    lib_rtti_impl.o(.ARM.exidx) refers to lib_rtti_impl.o(i.__ARM_common_noexcept_landing) for i.__ARM_common_noexcept_landing
    type_info_dtor.o(.constdata__ZTVSt9type_info) refers to type_info_dtor.o(.constdata__ZTISt9type_info) for typeinfo for std::type_info
    type_info_dtor.o(.constdata__ZTVSt9type_info) refers to type_info_dtor.o(i._ZNSt9type_infoD1Ev) for std::type_info::~type_info()
    type_info_dtor.o(.constdata__ZTVSt9type_info) refers to type_info_dtor.o(i._ZNSt9type_infoD0Ev) for std::type_info::~type_info__deallocating()
    type_info_dtor.o(.constdata__ZTISt9type_info) refers to lib_rtti_impl.o(.constdata__ZTVN10__cxxabiv117__class_type_infoE) for vtable for __cxxabiv1::__class_type_info
    type_info_dtor.o(.constdata__ZTISt9type_info) refers to type_info_dtor.o(.constdata__ZTSSt9type_info) for typeinfo name for std::type_info


==============================================================================

Removing Unused input sections from the image.

    Removing stm32f7xx_hal.o(.rev16_text), (4 bytes).
    Removing stm32f7xx_hal.o(.revsh_text), (4 bytes).
    Removing stm32f7xx_hal.o(.rrx_text), (6 bytes).
    Removing stm32f7xx_hal.o(i.HAL_DBGMCU_DisableDBGSleepMode), (20 bytes).
    Removing stm32f7xx_hal.o(i.HAL_DBGMCU_DisableDBGStandbyMode), (20 bytes).
    Removing stm32f7xx_hal.o(i.HAL_DBGMCU_DisableDBGStopMode), (20 bytes).
    Removing stm32f7xx_hal.o(i.HAL_DBGMCU_EnableDBGSleepMode), (20 bytes).
    Removing stm32f7xx_hal.o(i.HAL_DBGMCU_EnableDBGStandbyMode), (20 bytes).
    Removing stm32f7xx_hal.o(i.HAL_DBGMCU_EnableDBGStopMode), (20 bytes).
    Removing stm32f7xx_hal.o(i.HAL_DeInit), (68 bytes).
    Removing stm32f7xx_hal.o(i.HAL_DisableCompensationCell), (20 bytes).
    Removing stm32f7xx_hal.o(i.HAL_DisableFMCMemorySwapping), (20 bytes).
    Removing stm32f7xx_hal.o(i.HAL_EnableCompensationCell), (20 bytes).
    Removing stm32f7xx_hal.o(i.HAL_EnableFMCMemorySwapping), (20 bytes).
    Removing stm32f7xx_hal.o(i.HAL_GetDEVID), (16 bytes).
    Removing stm32f7xx_hal.o(i.HAL_GetHalVersion), (8 bytes).
    Removing stm32f7xx_hal.o(i.HAL_GetREVID), (12 bytes).
    Removing stm32f7xx_hal.o(i.HAL_MspDeInit), (10 bytes).
    Removing stm32f7xx_hal.o(i.HAL_ResumeTick), (18 bytes).
    Removing stm32f7xx_hal.o(i.HAL_SuspendTick), (18 bytes).
    Removing stm32f7xx_hal.o(.ARM.exidx), (8 bytes).
    Removing stm32f7xx_hal.o(.ARM.exidx), (8 bytes).
    Removing stm32f7xx_hal.o(.ARM.exidx), (8 bytes).
    Removing stm32f7xx_hal.o(.ARM.exidx), (8 bytes).
    Removing stm32f7xx_hal.o(.ARM.exidx), (8 bytes).
    Removing stm32f7xx_hal.o(.ARM.exidx), (8 bytes).
    Removing stm32f7xx_hal.o(.ARM.exidx), (8 bytes).
    Removing stm32f7xx_hal.o(.ARM.exidx), (8 bytes).
    Removing stm32f7xx_hal.o(.ARM.exidx), (8 bytes).
    Removing stm32f7xx_hal.o(.ARM.exidx), (8 bytes).
    Removing stm32f7xx_hal.o(.ARM.exidx), (8 bytes).
    Removing stm32f7xx_hal.o(.ARM.exidx), (8 bytes).
    Removing stm32f7xx_hal.o(.ARM.exidx), (8 bytes).
    Removing stm32f7xx_hal.o(.ARM.exidx), (8 bytes).
    Removing stm32f7xx_hal.o(.ARM.exidx), (8 bytes).
    Removing stm32f7xx_hal.o(.ARM.exidx), (8 bytes).
    Removing stm32f7xx_hal.o(.ARM.exidx), (8 bytes).
    Removing stm32f7xx_hal.o(.ARM.exidx), (8 bytes).
    Removing stm32f7xx_hal.o(.ARM.exidx), (8 bytes).
    Removing stm32f7xx_hal.o(.ARM.exidx), (8 bytes).
    Removing stm32f7xx_hal.o(.ARM.exidx), (8 bytes).
    Removing stm32f7xx_hal.o(.ARM.exidx), (8 bytes).
    Removing stm32f7xx_hal.o(.ARM.exidx), (8 bytes).
    Removing stm32f7xx_hal_cortex.o(.rev16_text), (4 bytes).
    Removing stm32f7xx_hal_cortex.o(.revsh_text), (4 bytes).
    Removing stm32f7xx_hal_cortex.o(.rrx_text), (6 bytes).
    Removing stm32f7xx_hal_cortex.o(i.HAL_NVIC_ClearPendingIRQ), (28 bytes).
    Removing stm32f7xx_hal_cortex.o(i.HAL_NVIC_DisableIRQ), (28 bytes).
    Removing stm32f7xx_hal_cortex.o(i.HAL_NVIC_EnableIRQ), (26 bytes).
    Removing stm32f7xx_hal_cortex.o(i.HAL_NVIC_GetActive), (40 bytes).
    Removing stm32f7xx_hal_cortex.o(i.HAL_NVIC_GetPendingIRQ), (40 bytes).
    Removing stm32f7xx_hal_cortex.o(i.HAL_NVIC_GetPriority), (148 bytes).
    Removing stm32f7xx_hal_cortex.o(i.HAL_NVIC_GetPriorityGrouping), (8 bytes).
    Removing stm32f7xx_hal_cortex.o(i.HAL_NVIC_SetPendingIRQ), (28 bytes).
    Removing stm32f7xx_hal_cortex.o(i.HAL_NVIC_SystemReset), (68 bytes).
    Removing stm32f7xx_hal_cortex.o(i.HAL_SYSTICK_Callback), (10 bytes).
    Removing stm32f7xx_hal_cortex.o(i.HAL_SYSTICK_IRQHandler), (8 bytes).
    Removing stm32f7xx_hal_cortex.o(.ARM.exidx), (8 bytes).
    Removing stm32f7xx_hal_cortex.o(.ARM.exidx), (8 bytes).
    Removing stm32f7xx_hal_cortex.o(.ARM.exidx), (8 bytes).
    Removing stm32f7xx_hal_cortex.o(.ARM.exidx), (8 bytes).
    Removing stm32f7xx_hal_cortex.o(.ARM.exidx), (8 bytes).
    Removing stm32f7xx_hal_cortex.o(.ARM.exidx), (8 bytes).
    Removing stm32f7xx_hal_cortex.o(.ARM.exidx), (8 bytes).
    Removing stm32f7xx_hal_cortex.o(.ARM.exidx), (8 bytes).
    Removing stm32f7xx_hal_cortex.o(.ARM.exidx), (8 bytes).
    Removing stm32f7xx_hal_cortex.o(.ARM.exidx), (8 bytes).
    Removing stm32f7xx_hal_cortex.o(.ARM.exidx), (8 bytes).
    Removing stm32f7xx_hal_cortex.o(.ARM.exidx), (8 bytes).
    Removing stm32f7xx_hal_cortex.o(.ARM.exidx), (8 bytes).
    Removing stm32f7xx_hal_cortex.o(.ARM.exidx), (8 bytes).
    Removing stm32f7xx_hal_cortex.o(.ARM.exidx), (8 bytes).
    Removing stm32f7xx_hal_cortex.o(.ARM.exidx), (8 bytes).
    Removing stm32f7xx_hal_cortex.o(.ARM.exidx), (8 bytes).
    Removing stm32f7xx_hal_cortex.o(.ARM.exidx), (8 bytes).
    Removing stm32f7xx_hal_flash.o(.rev16_text), (4 bytes).
    Removing stm32f7xx_hal_flash.o(.revsh_text), (4 bytes).
    Removing stm32f7xx_hal_flash.o(.rrx_text), (6 bytes).
    Removing stm32f7xx_hal_flash.o(i.FLASH_WaitForLastOperation), (84 bytes).
    Removing stm32f7xx_hal_flash.o(i.HAL_FLASH_EndOfOperationCallback), (10 bytes).
    Removing stm32f7xx_hal_flash.o(i.HAL_FLASH_GetError), (12 bytes).
    Removing stm32f7xx_hal_flash.o(i.HAL_FLASH_IRQHandler), (348 bytes).
    Removing stm32f7xx_hal_flash.o(i.HAL_FLASH_Lock), (20 bytes).
    Removing stm32f7xx_hal_flash.o(i.HAL_FLASH_OB_Launch), (28 bytes).
    Removing stm32f7xx_hal_flash.o(i.HAL_FLASH_OB_Lock), (20 bytes).
    Removing stm32f7xx_hal_flash.o(i.HAL_FLASH_OB_Unlock), (44 bytes).
    Removing stm32f7xx_hal_flash.o(i.HAL_FLASH_OperationErrorCallback), (10 bytes).
    Removing stm32f7xx_hal_flash.o(i.HAL_FLASH_Program), (164 bytes).
    Removing stm32f7xx_hal_flash.o(i.HAL_FLASH_Program_IT), (152 bytes).
    Removing stm32f7xx_hal_flash.o(i.HAL_FLASH_Unlock), (44 bytes).
    Removing stm32f7xx_hal_flash.o(i._ZN43_INTERNAL_21_stm32f7xx_hal_flash_c_48aa8f3e18FLASH_Program_ByteEjh), (52 bytes).
    Removing stm32f7xx_hal_flash.o(i._ZN43_INTERNAL_21_stm32f7xx_hal_flash_c_48aa8f3e18FLASH_Program_WordEjj), (56 bytes).
    Removing stm32f7xx_hal_flash.o(i._ZN43_INTERNAL_21_stm32f7xx_hal_flash_c_48aa8f3e18FLASH_SetErrorCodeEv), (120 bytes).
    Removing stm32f7xx_hal_flash.o(i._ZN43_INTERNAL_21_stm32f7xx_hal_flash_c_48aa8f3e22FLASH_Program_HalfWordEjt), (56 bytes).
    Removing stm32f7xx_hal_flash.o(i._ZN43_INTERNAL_21_stm32f7xx_hal_flash_c_48aa8f3e24FLASH_Program_DoubleWordEjy), (60 bytes).
    Removing stm32f7xx_hal_flash.o(.ARM.exidx), (8 bytes).
    Removing stm32f7xx_hal_flash.o(.ARM.exidx), (8 bytes).
    Removing stm32f7xx_hal_flash.o(.ARM.exidx), (8 bytes).
    Removing stm32f7xx_hal_flash.o(.ARM.exidx), (8 bytes).
    Removing stm32f7xx_hal_flash.o(.ARM.exidx), (8 bytes).
    Removing stm32f7xx_hal_flash.o(.ARM.exidx), (8 bytes).
    Removing stm32f7xx_hal_flash.o(.ARM.exidx), (8 bytes).
    Removing stm32f7xx_hal_flash.o(.ARM.exidx), (8 bytes).
    Removing stm32f7xx_hal_flash.o(.ARM.exidx), (8 bytes).
    Removing stm32f7xx_hal_flash.o(.ARM.exidx), (8 bytes).
    Removing stm32f7xx_hal_flash.o(.ARM.exidx), (8 bytes).
    Removing stm32f7xx_hal_flash.o(.ARM.exidx), (8 bytes).
    Removing stm32f7xx_hal_flash.o(.ARM.exidx), (8 bytes).
    Removing stm32f7xx_hal_flash.o(.ARM.exidx), (8 bytes).
    Removing stm32f7xx_hal_flash.o(.ARM.exidx), (8 bytes).
    Removing stm32f7xx_hal_flash.o(.ARM.exidx), (8 bytes).
    Removing stm32f7xx_hal_flash.o(.ARM.exidx), (8 bytes).
    Removing stm32f7xx_hal_flash.o(.bss), (28 bytes).
    Removing stm32f7xx_hal_flash_ex.o(.rev16_text), (4 bytes).
    Removing stm32f7xx_hal_flash_ex.o(.revsh_text), (4 bytes).
    Removing stm32f7xx_hal_flash_ex.o(.rrx_text), (6 bytes).
    Removing stm32f7xx_hal_flash_ex.o(i.FLASH_Erase_Sector), (120 bytes).
    Removing stm32f7xx_hal_flash_ex.o(i.HAL_FLASHEx_Erase), (176 bytes).
    Removing stm32f7xx_hal_flash_ex.o(i.HAL_FLASHEx_Erase_IT), (116 bytes).
    Removing stm32f7xx_hal_flash_ex.o(i.HAL_FLASHEx_OBGetConfig), (50 bytes).
    Removing stm32f7xx_hal_flash_ex.o(i.HAL_FLASHEx_OBProgram), (200 bytes).
    Removing stm32f7xx_hal_flash_ex.o(i._ZN46_INTERNAL_24_stm32f7xx_hal_flash_ex_c_6648b60e15FLASH_MassEraseEh), (64 bytes).
    Removing stm32f7xx_hal_flash_ex.o(i._ZN46_INTERNAL_24_stm32f7xx_hal_flash_ex_c_6648b60e15FLASH_OB_GetBOREv), (16 bytes).
    Removing stm32f7xx_hal_flash_ex.o(i._ZN46_INTERNAL_24_stm32f7xx_hal_flash_ex_c_6648b60e15FLASH_OB_GetRDPEv), (32 bytes).
    Removing stm32f7xx_hal_flash_ex.o(i._ZN46_INTERNAL_24_stm32f7xx_hal_flash_ex_c_6648b60e15FLASH_OB_GetWRPEv), (16 bytes).
    Removing stm32f7xx_hal_flash_ex.o(i._ZN46_INTERNAL_24_stm32f7xx_hal_flash_ex_c_6648b60e16FLASH_OB_GetUserEv), (20 bytes).
    Removing stm32f7xx_hal_flash_ex.o(i._ZN46_INTERNAL_24_stm32f7xx_hal_flash_ex_c_6648b60e18FLASH_OB_EnableWRPEj), (36 bytes).
    Removing stm32f7xx_hal_flash_ex.o(i._ZN46_INTERNAL_24_stm32f7xx_hal_flash_ex_c_6648b60e19FLASH_OB_DisableWRPEj), (36 bytes).
    Removing stm32f7xx_hal_flash_ex.o(i._ZN46_INTERNAL_24_stm32f7xx_hal_flash_ex_c_6648b60e19FLASH_OB_UserConfigEjjjjjj), (96 bytes).
    Removing stm32f7xx_hal_flash_ex.o(i._ZN46_INTERNAL_24_stm32f7xx_hal_flash_ex_c_6648b60e23FLASH_OB_GetBootAddressEj), (28 bytes).
    Removing stm32f7xx_hal_flash_ex.o(i._ZN46_INTERNAL_24_stm32f7xx_hal_flash_ex_c_6648b60e24FLASH_OB_BOR_LevelConfigEh), (24 bytes).
    Removing stm32f7xx_hal_flash_ex.o(i._ZN46_INTERNAL_24_stm32f7xx_hal_flash_ex_c_6648b60e24FLASH_OB_RDP_LevelConfigEh), (32 bytes).
    Removing stm32f7xx_hal_flash_ex.o(i._ZN46_INTERNAL_24_stm32f7xx_hal_flash_ex_c_6648b60e26FLASH_OB_BootAddressConfigEjj), (60 bytes).
    Removing stm32f7xx_hal_flash_ex.o(.ARM.exidx), (8 bytes).
    Removing stm32f7xx_hal_flash_ex.o(.ARM.exidx), (8 bytes).
    Removing stm32f7xx_hal_flash_ex.o(.ARM.exidx), (8 bytes).
    Removing stm32f7xx_hal_flash_ex.o(.ARM.exidx), (8 bytes).
    Removing stm32f7xx_hal_flash_ex.o(.ARM.exidx), (8 bytes).
    Removing stm32f7xx_hal_flash_ex.o(.ARM.exidx), (8 bytes).
    Removing stm32f7xx_hal_flash_ex.o(.ARM.exidx), (8 bytes).
    Removing stm32f7xx_hal_flash_ex.o(.ARM.exidx), (8 bytes).
    Removing stm32f7xx_hal_flash_ex.o(.ARM.exidx), (8 bytes).
    Removing stm32f7xx_hal_flash_ex.o(.ARM.exidx), (8 bytes).
    Removing stm32f7xx_hal_flash_ex.o(.ARM.exidx), (8 bytes).
    Removing stm32f7xx_hal_flash_ex.o(.ARM.exidx), (8 bytes).
    Removing stm32f7xx_hal_flash_ex.o(.ARM.exidx), (8 bytes).
    Removing stm32f7xx_hal_flash_ex.o(.ARM.exidx), (8 bytes).
    Removing stm32f7xx_hal_flash_ex.o(.ARM.exidx), (8 bytes).
    Removing stm32f7xx_hal_flash_ex.o(.ARM.exidx), (8 bytes).
    Removing stm32f7xx_hal_flash_ex.o(.ARM.exidx), (8 bytes).
    Removing stm32f7xx_hal_gpio.o(.rev16_text), (4 bytes).
    Removing stm32f7xx_hal_gpio.o(.revsh_text), (4 bytes).
    Removing stm32f7xx_hal_gpio.o(.rrx_text), (6 bytes).
    Removing stm32f7xx_hal_gpio.o(i.HAL_GPIO_DeInit), (384 bytes).
    Removing stm32f7xx_hal_gpio.o(i.HAL_GPIO_EXTI_Callback), (10 bytes).
    Removing stm32f7xx_hal_gpio.o(i.HAL_GPIO_EXTI_IRQHandler), (28 bytes).
    Removing stm32f7xx_hal_gpio.o(i.HAL_GPIO_LockPin), (46 bytes).
    Removing stm32f7xx_hal_gpio.o(i.HAL_GPIO_ReadPin), (16 bytes).
    Removing stm32f7xx_hal_gpio.o(i.HAL_GPIO_TogglePin), (8 bytes).
    Removing stm32f7xx_hal_gpio.o(i.HAL_GPIO_WritePin), (12 bytes).
    Removing stm32f7xx_hal_gpio.o(.ARM.exidx), (8 bytes).
    Removing stm32f7xx_hal_gpio.o(.ARM.exidx), (8 bytes).
    Removing stm32f7xx_hal_gpio.o(.ARM.exidx), (8 bytes).
    Removing stm32f7xx_hal_gpio.o(.ARM.exidx), (8 bytes).
    Removing stm32f7xx_hal_gpio.o(.ARM.exidx), (8 bytes).
    Removing stm32f7xx_hal_gpio.o(.ARM.exidx), (8 bytes).
    Removing stm32f7xx_hal_gpio.o(.ARM.exidx), (8 bytes).
    Removing stm32f7xx_hal_gpio.o(.ARM.exidx), (8 bytes).
    Removing stm32f7xx_hal_rcc.o(.rev16_text), (4 bytes).
    Removing stm32f7xx_hal_rcc.o(.revsh_text), (4 bytes).
    Removing stm32f7xx_hal_rcc.o(.rrx_text), (6 bytes).
    Removing stm32f7xx_hal_rcc.o(i.HAL_RCC_CSSCallback), (10 bytes).
    Removing stm32f7xx_hal_rcc.o(i.HAL_RCC_DeInit), (112 bytes).
    Removing stm32f7xx_hal_rcc.o(i.HAL_RCC_DisableCSS), (20 bytes).
    Removing stm32f7xx_hal_rcc.o(i.HAL_RCC_EnableCSS), (20 bytes).
    Removing stm32f7xx_hal_rcc.o(i.HAL_RCC_GetClockConfig), (68 bytes).
    Removing stm32f7xx_hal_rcc.o(i.HAL_RCC_GetOscConfig), (296 bytes).
    Removing stm32f7xx_hal_rcc.o(i.HAL_RCC_GetPCLK1Freq), (44 bytes).
    Removing stm32f7xx_hal_rcc.o(i.HAL_RCC_GetPCLK2Freq), (44 bytes).
    Removing stm32f7xx_hal_rcc.o(i.HAL_RCC_MCOConfig), (192 bytes).
    Removing stm32f7xx_hal_rcc.o(i.HAL_RCC_NMI_IRQHandler), (32 bytes).
    Removing stm32f7xx_hal_rcc.o(.ARM.exidx), (8 bytes).
    Removing stm32f7xx_hal_rcc.o(.ARM.exidx), (8 bytes).
    Removing stm32f7xx_hal_rcc.o(.ARM.exidx), (8 bytes).
    Removing stm32f7xx_hal_rcc.o(.ARM.exidx), (8 bytes).
    Removing stm32f7xx_hal_rcc.o(.ARM.exidx), (8 bytes).
    Removing stm32f7xx_hal_rcc.o(.ARM.exidx), (8 bytes).
    Removing stm32f7xx_hal_rcc.o(.ARM.exidx), (8 bytes).
    Removing stm32f7xx_hal_rcc.o(.ARM.exidx), (8 bytes).
    Removing stm32f7xx_hal_rcc.o(.ARM.exidx), (8 bytes).
    Removing stm32f7xx_hal_rcc.o(.ARM.exidx), (8 bytes).
    Removing stm32f7xx_hal_rcc.o(.ARM.exidx), (8 bytes).
    Removing stm32f7xx_hal_rcc.o(.ARM.exidx), (8 bytes).
    Removing stm32f7xx_hal_rcc.o(.ARM.exidx), (8 bytes).
    Removing stm32f7xx_hal_rcc.o(.ARM.exidx), (8 bytes).
    Removing stm32f7xx_hal_rcc_ex.o(.rev16_text), (4 bytes).
    Removing stm32f7xx_hal_rcc_ex.o(.revsh_text), (4 bytes).
    Removing stm32f7xx_hal_rcc_ex.o(.rrx_text), (6 bytes).
    Removing stm32f7xx_hal_rcc_ex.o(i.HAL_RCCEx_GetPeriphCLKConfig), (568 bytes).
    Removing stm32f7xx_hal_rcc_ex.o(i.HAL_RCCEx_GetPeriphCLKFreq), (460 bytes).
    Removing stm32f7xx_hal_rcc_ex.o(i.HAL_RCCEx_PeriphCLKConfig), (2328 bytes).
    Removing stm32f7xx_hal_rcc_ex.o(.ARM.exidx), (8 bytes).
    Removing stm32f7xx_hal_rcc_ex.o(.ARM.exidx), (8 bytes).
    Removing stm32f7xx_hal_rcc_ex.o(.ARM.exidx), (8 bytes).
    Removing stm32f7xx_hal_pwr.o(.rev16_text), (4 bytes).
    Removing stm32f7xx_hal_pwr.o(.revsh_text), (4 bytes).
    Removing stm32f7xx_hal_pwr.o(.rrx_text), (6 bytes).
    Removing stm32f7xx_hal_pwr.o(i.HAL_PWR_ConfigPVD), (180 bytes).
    Removing stm32f7xx_hal_pwr.o(i.HAL_PWR_DeInit), (28 bytes).
    Removing stm32f7xx_hal_pwr.o(i.HAL_PWR_DisableBkUpAccess), (20 bytes).
    Removing stm32f7xx_hal_pwr.o(i.HAL_PWR_DisablePVD), (20 bytes).
    Removing stm32f7xx_hal_pwr.o(i.HAL_PWR_DisableSEVOnPend), (20 bytes).
    Removing stm32f7xx_hal_pwr.o(i.HAL_PWR_DisableSleepOnExit), (20 bytes).
    Removing stm32f7xx_hal_pwr.o(i.HAL_PWR_DisableWakeUpPin), (16 bytes).
    Removing stm32f7xx_hal_pwr.o(i.HAL_PWR_EnableBkUpAccess), (20 bytes).
    Removing stm32f7xx_hal_pwr.o(i.HAL_PWR_EnablePVD), (20 bytes).
    Removing stm32f7xx_hal_pwr.o(i.HAL_PWR_EnableSEVOnPend), (20 bytes).
    Removing stm32f7xx_hal_pwr.o(i.HAL_PWR_EnableSleepOnExit), (20 bytes).
    Removing stm32f7xx_hal_pwr.o(i.HAL_PWR_EnableWakeUpPin), (40 bytes).
    Removing stm32f7xx_hal_pwr.o(i.HAL_PWR_EnterSLEEPMode), (32 bytes).
    Removing stm32f7xx_hal_pwr.o(i.HAL_PWR_EnterSTANDBYMode), (40 bytes).
    Removing stm32f7xx_hal_pwr.o(i.HAL_PWR_EnterSTOPMode), (68 bytes).
    Removing stm32f7xx_hal_pwr.o(i.HAL_PWR_PVDCallback), (10 bytes).
    Removing stm32f7xx_hal_pwr.o(i.HAL_PWR_PVD_IRQHandler), (32 bytes).
    Removing stm32f7xx_hal_pwr.o(.ARM.exidx), (8 bytes).
    Removing stm32f7xx_hal_pwr.o(.ARM.exidx), (8 bytes).
    Removing stm32f7xx_hal_pwr.o(.ARM.exidx), (8 bytes).
    Removing stm32f7xx_hal_pwr.o(.ARM.exidx), (8 bytes).
    Removing stm32f7xx_hal_pwr.o(.ARM.exidx), (8 bytes).
    Removing stm32f7xx_hal_pwr.o(.ARM.exidx), (8 bytes).
    Removing stm32f7xx_hal_pwr.o(.ARM.exidx), (8 bytes).
    Removing stm32f7xx_hal_pwr.o(.ARM.exidx), (8 bytes).
    Removing stm32f7xx_hal_pwr.o(.ARM.exidx), (8 bytes).
    Removing stm32f7xx_hal_pwr.o(.ARM.exidx), (8 bytes).
    Removing stm32f7xx_hal_pwr.o(.ARM.exidx), (8 bytes).
    Removing stm32f7xx_hal_pwr.o(.ARM.exidx), (8 bytes).
    Removing stm32f7xx_hal_pwr.o(.ARM.exidx), (8 bytes).
    Removing stm32f7xx_hal_pwr.o(.ARM.exidx), (8 bytes).
    Removing stm32f7xx_hal_pwr.o(.ARM.exidx), (8 bytes).
    Removing stm32f7xx_hal_pwr.o(.ARM.exidx), (8 bytes).
    Removing stm32f7xx_hal_pwr.o(.ARM.exidx), (8 bytes).
    Removing stm32f7xx_hal_pwr_ex.o(.rev16_text), (4 bytes).
    Removing stm32f7xx_hal_pwr_ex.o(.revsh_text), (4 bytes).
    Removing stm32f7xx_hal_pwr_ex.o(.rrx_text), (6 bytes).
    Removing stm32f7xx_hal_pwr_ex.o(i.HAL_PWREx_ControlVoltageScaling), (244 bytes).
    Removing stm32f7xx_hal_pwr_ex.o(i.HAL_PWREx_DisableBkUpReg), (60 bytes).
    Removing stm32f7xx_hal_pwr_ex.o(i.HAL_PWREx_DisableFlashPowerDown), (20 bytes).
    Removing stm32f7xx_hal_pwr_ex.o(i.HAL_PWREx_DisableLowRegulatorLowVoltage), (20 bytes).
    Removing stm32f7xx_hal_pwr_ex.o(i.HAL_PWREx_DisableMainRegulatorLowVoltage), (20 bytes).
    Removing stm32f7xx_hal_pwr_ex.o(i.HAL_PWREx_DisableOverDrive), (148 bytes).
    Removing stm32f7xx_hal_pwr_ex.o(i.HAL_PWREx_EnableBkUpReg), (60 bytes).
    Removing stm32f7xx_hal_pwr_ex.o(i.HAL_PWREx_EnableFlashPowerDown), (20 bytes).
    Removing stm32f7xx_hal_pwr_ex.o(i.HAL_PWREx_EnableLowRegulatorLowVoltage), (20 bytes).
    Removing stm32f7xx_hal_pwr_ex.o(i.HAL_PWREx_EnableMainRegulatorLowVoltage), (20 bytes).
    Removing stm32f7xx_hal_pwr_ex.o(i.HAL_PWREx_EnterUnderDriveSTOPMode), (168 bytes).
    Removing stm32f7xx_hal_pwr_ex.o(i.HAL_PWREx_GetVoltageRange), (16 bytes).
    Removing stm32f7xx_hal_pwr_ex.o(.ARM.exidx), (8 bytes).
    Removing stm32f7xx_hal_pwr_ex.o(.ARM.exidx), (8 bytes).
    Removing stm32f7xx_hal_pwr_ex.o(.ARM.exidx), (8 bytes).
    Removing stm32f7xx_hal_pwr_ex.o(.ARM.exidx), (8 bytes).
    Removing stm32f7xx_hal_pwr_ex.o(.ARM.exidx), (8 bytes).
    Removing stm32f7xx_hal_pwr_ex.o(.ARM.exidx), (8 bytes).
    Removing stm32f7xx_hal_pwr_ex.o(.ARM.exidx), (8 bytes).
    Removing stm32f7xx_hal_pwr_ex.o(.ARM.exidx), (8 bytes).
    Removing stm32f7xx_hal_pwr_ex.o(.ARM.exidx), (8 bytes).
    Removing stm32f7xx_hal_pwr_ex.o(.ARM.exidx), (8 bytes).
    Removing stm32f7xx_hal_pwr_ex.o(.ARM.exidx), (8 bytes).
    Removing stm32f7xx_hal_pwr_ex.o(.ARM.exidx), (8 bytes).
    Removing stm32f7xx_hal_pwr_ex.o(.ARM.exidx), (8 bytes).
    Removing stm32f7xx_hal_spi.o(.rev16_text), (4 bytes).
    Removing stm32f7xx_hal_spi.o(.revsh_text), (4 bytes).
    Removing stm32f7xx_hal_spi.o(.rrx_text), (6 bytes).
    Removing stm32f7xx_hal_spi.o(i.HAL_SPI_DMAPause), (50 bytes).
    Removing stm32f7xx_hal_spi.o(i.HAL_SPI_DMAResume), (50 bytes).
    Removing stm32f7xx_hal_spi.o(i.HAL_SPI_DMAStop), (46 bytes).
    Removing stm32f7xx_hal_spi.o(i.HAL_SPI_DeInit), (94 bytes).
    Removing stm32f7xx_hal_spi.o(i.HAL_SPI_ErrorCallback), (2 bytes).
    Removing stm32f7xx_hal_spi.o(i.HAL_SPI_GetError), (6 bytes).
    Removing stm32f7xx_hal_spi.o(i.HAL_SPI_GetState), (8 bytes).
    Removing stm32f7xx_hal_spi.o(i.HAL_SPI_IRQHandler), (242 bytes).
    Removing stm32f7xx_hal_spi.o(i.HAL_SPI_MspDeInit), (2 bytes).
    Removing stm32f7xx_hal_spi.o(i.HAL_SPI_Receive), (622 bytes).
    Removing stm32f7xx_hal_spi.o(i.HAL_SPI_Receive_DMA), (352 bytes).
    Removing stm32f7xx_hal_spi.o(i.HAL_SPI_Receive_IT), (316 bytes).
    Removing stm32f7xx_hal_spi.o(i.HAL_SPI_RxCpltCallback), (2 bytes).
    Removing stm32f7xx_hal_spi.o(i.HAL_SPI_RxHalfCpltCallback), (2 bytes).
    Removing stm32f7xx_hal_spi.o(i.HAL_SPI_Transmit), (458 bytes).
    Removing stm32f7xx_hal_spi.o(i.HAL_SPI_TransmitReceive), (792 bytes).
    Removing stm32f7xx_hal_spi.o(i.HAL_SPI_TransmitReceive_DMA), (552 bytes).
    Removing stm32f7xx_hal_spi.o(i.HAL_SPI_TransmitReceive_IT), (312 bytes).
    Removing stm32f7xx_hal_spi.o(i.HAL_SPI_Transmit_DMA), (316 bytes).
    Removing stm32f7xx_hal_spi.o(i.HAL_SPI_Transmit_IT), (216 bytes).
    Removing stm32f7xx_hal_spi.o(i.HAL_SPI_TxCpltCallback), (2 bytes).
    Removing stm32f7xx_hal_spi.o(i.HAL_SPI_TxHalfCpltCallback), (2 bytes).
    Removing stm32f7xx_hal_spi.o(i.HAL_SPI_TxRxCpltCallback), (2 bytes).
    Removing stm32f7xx_hal_spi.o(i.HAL_SPI_TxRxHalfCpltCallback), (2 bytes).
    Removing stm32f7xx_hal_spi.o(i._ZN41_INTERNAL_19_stm32f7xx_hal_spi_c_5e7b22bd12SPI_DMAErrorEP19__DMA_HandleTypeDef), (40 bytes).
    Removing stm32f7xx_hal_spi.o(i._ZN41_INTERNAL_19_stm32f7xx_hal_spi_c_5e7b22bd14SPI_RxISR_8BITEP19__SPI_HandleTypeDef), (88 bytes).
    Removing stm32f7xx_hal_spi.o(i._ZN41_INTERNAL_19_stm32f7xx_hal_spi_c_5e7b22bd14SPI_TxISR_8BITEP19__SPI_HandleTypeDef), (54 bytes).
    Removing stm32f7xx_hal_spi.o(i._ZN41_INTERNAL_19_stm32f7xx_hal_spi_c_5e7b22bd15SPI_CloseRx_ISREP19__SPI_HandleTypeDef), (84 bytes).
    Removing stm32f7xx_hal_spi.o(i._ZN41_INTERNAL_19_stm32f7xx_hal_spi_c_5e7b22bd15SPI_CloseTx_ISREP19__SPI_HandleTypeDef), (68 bytes).
    Removing stm32f7xx_hal_spi.o(i._ZN41_INTERNAL_19_stm32f7xx_hal_spi_c_5e7b22bd15SPI_RxISR_16BITEP19__SPI_HandleTypeDef), (92 bytes).
    Removing stm32f7xx_hal_spi.o(i._ZN41_INTERNAL_19_stm32f7xx_hal_spi_c_5e7b22bd15SPI_TxISR_16BITEP19__SPI_HandleTypeDef), (56 bytes).
    Removing stm32f7xx_hal_spi.o(i._ZN41_INTERNAL_19_stm32f7xx_hal_spi_c_5e7b22bd17SPI_CloseRxTx_ISREP19__SPI_HandleTypeDef), (110 bytes).
    Removing stm32f7xx_hal_spi.o(i._ZN41_INTERNAL_19_stm32f7xx_hal_spi_c_5e7b22bd17SPI_RxISR_8BITCRCEP19__SPI_HandleTypeDef), (32 bytes).
    Removing stm32f7xx_hal_spi.o(i._ZN41_INTERNAL_19_stm32f7xx_hal_spi_c_5e7b22bd18SPI_DMAReceiveCpltEP19__DMA_HandleTypeDef), (224 bytes).
    Removing stm32f7xx_hal_spi.o(i._ZN41_INTERNAL_19_stm32f7xx_hal_spi_c_5e7b22bd18SPI_RxISR_16BITCRCEP19__SPI_HandleTypeDef), (36 bytes).
    Removing stm32f7xx_hal_spi.o(i._ZN41_INTERNAL_19_stm32f7xx_hal_spi_c_5e7b22bd19SPI_DMATransmitCpltEP19__DMA_HandleTypeDef), (86 bytes).
    Removing stm32f7xx_hal_spi.o(i._ZN41_INTERNAL_19_stm32f7xx_hal_spi_c_5e7b22bd20SPI_2linesRxISR_8BITEP19__SPI_HandleTypeDef), (144 bytes).
    Removing stm32f7xx_hal_spi.o(i._ZN41_INTERNAL_19_stm32f7xx_hal_spi_c_5e7b22bd20SPI_2linesTxISR_8BITEP19__SPI_HandleTypeDef), (100 bytes).
    Removing stm32f7xx_hal_spi.o(i._ZN41_INTERNAL_19_stm32f7xx_hal_spi_c_5e7b22bd20SPI_EndRxTransactionEP19__SPI_HandleTypeDefj), (100 bytes).
    Removing stm32f7xx_hal_spi.o(i._ZN41_INTERNAL_19_stm32f7xx_hal_spi_c_5e7b22bd21SPI_2linesRxISR_16BITEP19__SPI_HandleTypeDef), (80 bytes).
    Removing stm32f7xx_hal_spi.o(i._ZN41_INTERNAL_19_stm32f7xx_hal_spi_c_5e7b22bd21SPI_2linesTxISR_16BITEP19__SPI_HandleTypeDef), (74 bytes).
    Removing stm32f7xx_hal_spi.o(i._ZN41_INTERNAL_19_stm32f7xx_hal_spi_c_5e7b22bd22SPI_DMAHalfReceiveCpltEP19__DMA_HandleTypeDef), (14 bytes).
    Removing stm32f7xx_hal_spi.o(i._ZN41_INTERNAL_19_stm32f7xx_hal_spi_c_5e7b22bd22SPI_EndRxTxTransactionEP19__SPI_HandleTypeDefj), (92 bytes).
    Removing stm32f7xx_hal_spi.o(i._ZN41_INTERNAL_19_stm32f7xx_hal_spi_c_5e7b22bd23SPI_2linesRxISR_8BITCRCEP19__SPI_HandleTypeDef), (48 bytes).
    Removing stm32f7xx_hal_spi.o(i._ZN41_INTERNAL_19_stm32f7xx_hal_spi_c_5e7b22bd23SPI_DMAHalfTransmitCpltEP19__DMA_HandleTypeDef), (14 bytes).
    Removing stm32f7xx_hal_spi.o(i._ZN41_INTERNAL_19_stm32f7xx_hal_spi_c_5e7b22bd24SPI_2linesRxISR_16BITCRCEP19__SPI_HandleTypeDef), (36 bytes).
    Removing stm32f7xx_hal_spi.o(i._ZN41_INTERNAL_19_stm32f7xx_hal_spi_c_5e7b22bd26SPI_DMATransmitReceiveCpltEP19__DMA_HandleTypeDef), (198 bytes).
    Removing stm32f7xx_hal_spi.o(i._ZN41_INTERNAL_19_stm32f7xx_hal_spi_c_5e7b22bd29SPI_WaitFifoStateUntilTimeoutEP19__SPI_HandleTypeDefjjj), (180 bytes).
    Removing stm32f7xx_hal_spi.o(i._ZN41_INTERNAL_19_stm32f7xx_hal_spi_c_5e7b22bd29SPI_WaitFlagStateUntilTimeoutEP19__SPI_HandleTypeDefjjj), (162 bytes).
    Removing stm32f7xx_hal_spi.o(i._ZN41_INTERNAL_19_stm32f7xx_hal_spi_c_5e7b22bd30SPI_DMAHalfTransmitReceiveCpltEP19__DMA_HandleTypeDef), (14 bytes).
    Removing stm32f7xx_hal_spi.o(.ARM.exidx), (8 bytes).
    Removing stm32f7xx_hal_spi.o(.ARM.exidx), (8 bytes).
    Removing stm32f7xx_hal_spi.o(.ARM.exidx), (8 bytes).
    Removing stm32f7xx_hal_spi.o(.ARM.exidx), (8 bytes).
    Removing stm32f7xx_hal_spi.o(.ARM.exidx), (8 bytes).
    Removing stm32f7xx_hal_spi.o(.ARM.exidx), (8 bytes).
    Removing stm32f7xx_hal_spi.o(.ARM.exidx), (8 bytes).
    Removing stm32f7xx_hal_spi.o(.ARM.exidx), (8 bytes).
    Removing stm32f7xx_hal_spi.o(.ARM.exidx), (8 bytes).
    Removing stm32f7xx_hal_spi.o(.ARM.exidx), (8 bytes).
    Removing stm32f7xx_hal_spi.o(.ARM.exidx), (8 bytes).
    Removing stm32f7xx_hal_spi.o(.ARM.exidx), (8 bytes).
    Removing stm32f7xx_hal_spi.o(.ARM.exidx), (8 bytes).
    Removing stm32f7xx_hal_spi.o(.ARM.exidx), (8 bytes).
    Removing stm32f7xx_hal_spi.o(.ARM.exidx), (8 bytes).
    Removing stm32f7xx_hal_spi.o(.ARM.exidx), (8 bytes).
    Removing stm32f7xx_hal_spi.o(.ARM.exidx), (8 bytes).
    Removing stm32f7xx_hal_spi.o(.ARM.exidx), (8 bytes).
    Removing stm32f7xx_hal_spi.o(.ARM.exidx), (8 bytes).
    Removing stm32f7xx_hal_spi.o(.ARM.exidx), (8 bytes).
    Removing stm32f7xx_hal_spi.o(.ARM.exidx), (8 bytes).
    Removing stm32f7xx_hal_spi.o(.ARM.exidx), (8 bytes).
    Removing stm32f7xx_hal_spi.o(.ARM.exidx), (8 bytes).
    Removing stm32f7xx_hal_spi.o(.ARM.exidx), (8 bytes).
    Removing stm32f7xx_hal_spi.o(.ARM.exidx), (8 bytes).
    Removing stm32f7xx_hal_spi.o(.ARM.exidx), (8 bytes).
    Removing stm32f7xx_hal_spi.o(.ARM.exidx), (8 bytes).
    Removing stm32f7xx_hal_spi.o(.ARM.exidx), (8 bytes).
    Removing stm32f7xx_hal_spi.o(.ARM.exidx), (8 bytes).
    Removing stm32f7xx_hal_spi.o(.ARM.exidx), (8 bytes).
    Removing stm32f7xx_hal_spi.o(.ARM.exidx), (8 bytes).
    Removing stm32f7xx_hal_spi.o(.ARM.exidx), (8 bytes).
    Removing stm32f7xx_hal_spi.o(.ARM.exidx), (8 bytes).
    Removing stm32f7xx_hal_spi.o(.ARM.exidx), (8 bytes).
    Removing stm32f7xx_hal_spi.o(.ARM.exidx), (8 bytes).
    Removing stm32f7xx_hal_spi.o(.ARM.exidx), (8 bytes).
    Removing stm32f7xx_hal_spi.o(.ARM.exidx), (8 bytes).
    Removing stm32f7xx_hal_spi.o(.ARM.exidx), (8 bytes).
    Removing stm32f7xx_hal_spi.o(.ARM.exidx), (8 bytes).
    Removing stm32f7xx_hal_spi.o(.ARM.exidx), (8 bytes).
    Removing stm32f7xx_hal_spi.o(.ARM.exidx), (8 bytes).
    Removing stm32f7xx_hal_spi.o(.ARM.exidx), (8 bytes).
    Removing stm32f7xx_hal_spi.o(.ARM.exidx), (8 bytes).
    Removing stm32f7xx_hal_spi.o(.ARM.exidx), (8 bytes).
    Removing stm32f7xx_hal_spi.o(.ARM.exidx), (8 bytes).
    Removing stm32f7xx_hal_spi.o(.ARM.exidx), (8 bytes).
    Removing stm32f7xx_hal_spi.o(.ARM.exidx), (8 bytes).
    Removing stm32f7xx_hal_spi.o(.ARM.exidx), (8 bytes).
    Removing stm32f7xx_hal_spi.o(.ARM.exidx), (8 bytes).
    Removing stm32f7xx_hal_spi.o(.ARM.exidx), (8 bytes).
    Removing stm32f7xx_hal_spi.o(.ARM.exidx), (8 bytes).
    Removing stm32f7xx_hal_spi.o(.ARM.exidx), (8 bytes).
    Removing stm32f7xx_hal_dma.o(.rev16_text), (4 bytes).
    Removing stm32f7xx_hal_dma.o(.revsh_text), (4 bytes).
    Removing stm32f7xx_hal_dma.o(.rrx_text), (6 bytes).
    Removing stm32f7xx_hal_dma.o(i.HAL_DMA_Abort), (94 bytes).
    Removing stm32f7xx_hal_dma.o(i.HAL_DMA_DeInit), (100 bytes).
    Removing stm32f7xx_hal_dma.o(i.HAL_DMA_GetError), (6 bytes).
    Removing stm32f7xx_hal_dma.o(i.HAL_DMA_GetState), (8 bytes).
    Removing stm32f7xx_hal_dma.o(i.HAL_DMA_IRQHandler), (536 bytes).
    Removing stm32f7xx_hal_dma.o(i.HAL_DMA_Init), (132 bytes).
    Removing stm32f7xx_hal_dma.o(i.HAL_DMA_PollForTransfer), (404 bytes).
    Removing stm32f7xx_hal_dma.o(i.HAL_DMA_Start), (82 bytes).
    Removing stm32f7xx_hal_dma.o(i.HAL_DMA_Start_IT), (106 bytes).
    Removing stm32f7xx_hal_dma.o(i._ZN41_INTERNAL_19_stm32f7xx_hal_dma_c_c25f65ec13DMA_SetConfigEP19__DMA_HandleTypeDefjjj), (44 bytes).
    Removing stm32f7xx_hal_dma.o(i._ZN41_INTERNAL_19_stm32f7xx_hal_dma_c_c25f65ec23DMA_CalcBaseAndBitshiftEP19__DMA_HandleTypeDef), (52 bytes).
    Removing stm32f7xx_hal_dma.o(.ARM.exidx), (8 bytes).
    Removing stm32f7xx_hal_dma.o(.ARM.exidx), (8 bytes).
    Removing stm32f7xx_hal_dma.o(.ARM.exidx), (8 bytes).
    Removing stm32f7xx_hal_dma.o(.ARM.exidx), (8 bytes).
    Removing stm32f7xx_hal_dma.o(.ARM.exidx), (8 bytes).
    Removing stm32f7xx_hal_dma.o(.ARM.exidx), (8 bytes).
    Removing stm32f7xx_hal_dma.o(.ARM.exidx), (8 bytes).
    Removing stm32f7xx_hal_dma.o(.ARM.exidx), (8 bytes).
    Removing stm32f7xx_hal_dma.o(.ARM.exidx), (8 bytes).
    Removing stm32f7xx_hal_dma.o(.ARM.exidx), (8 bytes).
    Removing stm32f7xx_hal_dma.o(.ARM.exidx), (8 bytes).
    Removing stm32f7xx_hal_dma.o(.constdata), (8 bytes).
    Removing stm32f7xx_hal_dma_ex.o(.rev16_text), (4 bytes).
    Removing stm32f7xx_hal_dma_ex.o(.revsh_text), (4 bytes).
    Removing stm32f7xx_hal_dma_ex.o(.rrx_text), (6 bytes).
    Removing stm32f7xx_hal_dma_ex.o(i.HAL_DMAEx_ChangeMemory), (18 bytes).
    Removing stm32f7xx_hal_dma_ex.o(i.HAL_DMAEx_MultiBufferStart), (130 bytes).
    Removing stm32f7xx_hal_dma_ex.o(i.HAL_DMAEx_MultiBufferStart_IT), (190 bytes).
    Removing stm32f7xx_hal_dma_ex.o(i._ZN44_INTERNAL_22_stm32f7xx_hal_dma_ex_c_af8eecb024DMA_MultiBufferSetConfigEP19__DMA_HandleTypeDefjjj), (32 bytes).
    Removing stm32f7xx_hal_dma_ex.o(.ARM.exidx), (8 bytes).
    Removing stm32f7xx_hal_dma_ex.o(.ARM.exidx), (8 bytes).
    Removing stm32f7xx_hal_dma_ex.o(.ARM.exidx), (8 bytes).
    Removing stm32f7xx_hal_dma_ex.o(.ARM.exidx), (8 bytes).
    Removing stm32f7xx_hal_dma2d.o(.rev16_text), (4 bytes).
    Removing stm32f7xx_hal_dma2d.o(.revsh_text), (4 bytes).
    Removing stm32f7xx_hal_dma2d.o(.rrx_text), (6 bytes).
    Removing stm32f7xx_hal_dma2d.o(i.HAL_DMA2D_Abort), (96 bytes).
    Removing stm32f7xx_hal_dma2d.o(i.HAL_DMA2D_BlendingStart), (94 bytes).
    Removing stm32f7xx_hal_dma2d.o(i.HAL_DMA2D_BlendingStart_IT), (130 bytes).
    Removing stm32f7xx_hal_dma2d.o(i.HAL_DMA2D_ConfigCLUT), (96 bytes).
    Removing stm32f7xx_hal_dma2d.o(i.HAL_DMA2D_ConfigLayer), (284 bytes).
    Removing stm32f7xx_hal_dma2d.o(i.HAL_DMA2D_DeInit), (36 bytes).
    Removing stm32f7xx_hal_dma2d.o(i.HAL_DMA2D_DisableCLUT), (34 bytes).
    Removing stm32f7xx_hal_dma2d.o(i.HAL_DMA2D_EnableCLUT), (34 bytes).
    Removing stm32f7xx_hal_dma2d.o(i.HAL_DMA2D_GetError), (6 bytes).
    Removing stm32f7xx_hal_dma2d.o(i.HAL_DMA2D_GetState), (8 bytes).
    Removing stm32f7xx_hal_dma2d.o(i.HAL_DMA2D_IRQHandler), (218 bytes).
    Removing stm32f7xx_hal_dma2d.o(i.HAL_DMA2D_Init), (98 bytes).
    Removing stm32f7xx_hal_dma2d.o(i.HAL_DMA2D_MspDeInit), (2 bytes).
    Removing stm32f7xx_hal_dma2d.o(i.HAL_DMA2D_MspInit), (2 bytes).
    Removing stm32f7xx_hal_dma2d.o(i.HAL_DMA2D_PollForTransfer), (262 bytes).
    Removing stm32f7xx_hal_dma2d.o(i.HAL_DMA2D_ProgramLineEvent), (60 bytes).
    Removing stm32f7xx_hal_dma2d.o(i.HAL_DMA2D_Resume), (24 bytes).
    Removing stm32f7xx_hal_dma2d.o(i.HAL_DMA2D_Start), (90 bytes).
    Removing stm32f7xx_hal_dma2d.o(i.HAL_DMA2D_Start_IT), (126 bytes).
    Removing stm32f7xx_hal_dma2d.o(i.HAL_DMA2D_Suspend), (76 bytes).
    Removing stm32f7xx_hal_dma2d.o(i._ZN43_INTERNAL_21_stm32f7xx_hal_dma2d_c_16a0ba0915DMA2D_SetConfigEP21__DMA2D_HandleTypeDefjjjj), (230 bytes).
    Removing stm32f7xx_hal_dma2d.o(.ARM.exidx), (8 bytes).
    Removing stm32f7xx_hal_dma2d.o(.ARM.exidx), (8 bytes).
    Removing stm32f7xx_hal_dma2d.o(.ARM.exidx), (8 bytes).
    Removing stm32f7xx_hal_dma2d.o(.ARM.exidx), (8 bytes).
    Removing stm32f7xx_hal_dma2d.o(.ARM.exidx), (8 bytes).
    Removing stm32f7xx_hal_dma2d.o(.ARM.exidx), (8 bytes).
    Removing stm32f7xx_hal_dma2d.o(.ARM.exidx), (8 bytes).
    Removing stm32f7xx_hal_dma2d.o(.ARM.exidx), (8 bytes).
    Removing stm32f7xx_hal_dma2d.o(.ARM.exidx), (8 bytes).
    Removing stm32f7xx_hal_dma2d.o(.ARM.exidx), (8 bytes).
    Removing stm32f7xx_hal_dma2d.o(.ARM.exidx), (8 bytes).
    Removing stm32f7xx_hal_dma2d.o(.ARM.exidx), (8 bytes).
    Removing stm32f7xx_hal_dma2d.o(.ARM.exidx), (8 bytes).
    Removing stm32f7xx_hal_dma2d.o(.ARM.exidx), (8 bytes).
    Removing stm32f7xx_hal_dma2d.o(.ARM.exidx), (8 bytes).
    Removing stm32f7xx_hal_dma2d.o(.ARM.exidx), (8 bytes).
    Removing stm32f7xx_hal_dma2d.o(.ARM.exidx), (8 bytes).
    Removing stm32f7xx_hal_dma2d.o(.ARM.exidx), (8 bytes).
    Removing stm32f7xx_hal_dma2d.o(.ARM.exidx), (8 bytes).
    Removing stm32f7xx_hal_dma2d.o(.ARM.exidx), (8 bytes).
    Removing stm32f7xx_hal_dma2d.o(.ARM.exidx), (8 bytes).
    Removing main.o(.rev16_text), (4 bytes).
    Removing main.o(.revsh_text), (4 bytes).
    Removing main.o(.rrx_text), (6 bytes).
    Removing main.o(.ARM.exidx), (8 bytes).
    Removing stm32f7xx_it.o(.rev16_text), (4 bytes).
    Removing stm32f7xx_it.o(.revsh_text), (4 bytes).
    Removing stm32f7xx_it.o(.rrx_text), (6 bytes).
    Removing stm32f7xx_it.o(.ARM.exidx), (8 bytes).
    Removing stm32f7xx_it.o(.ARM.exidx), (8 bytes).
    Removing stm32f7xx_it.o(.ARM.exidx), (8 bytes).
    Removing stm32f7xx_it.o(.ARM.exidx), (8 bytes).
    Removing stm32f7xx_it.o(.ARM.exidx), (8 bytes).
    Removing stm32f7xx_it.o(.ARM.exidx), (8 bytes).
    Removing stm32f7xx_it.o(.ARM.exidx), (8 bytes).
    Removing stm32f7xx_it.o(.ARM.exidx), (8 bytes).
    Removing stm32f7xx_it.o(.ARM.exidx), (8 bytes).
    Removing init.o(.rev16_text), (4 bytes).
    Removing init.o(.revsh_text), (4 bytes).
    Removing init.o(.rrx_text), (6 bytes).
    Removing init.o(.ARM.exidx), (8 bytes).
    Removing init.o(.ARM.exidx), (8 bytes).
    Removing init.o(.ARM.exidx), (8 bytes).
    Removing init.o(.ARM.exidx), (8 bytes).
    Removing init.o(.ARM.exidx), (8 bytes).
    Removing init.o(.ARM.exidx), (8 bytes).
    Removing init.o(.ARM.exidx), (8 bytes).
    Removing init.o(.ARM.exidx), (8 bytes).
    Removing init.o(.ARM.exidx), (8 bytes).
    Removing device.o(.rev16_text), (4 bytes).
    Removing device.o(.revsh_text), (4 bytes).
    Removing device.o(.rrx_text), (6 bytes).
    Removing device.o(i._ZN11StepMotorAB13setCoilAPhaseEi), (12 bytes).
    Removing device.o(i._ZN11StepMotorAB13setCoilBPhaseEi), (12 bytes).
    Removing device.o(i._ZN11StepMotorAB6HLInitEv), (6 bytes).
    Removing device.o(i._ZN11StepMotorAB8HLDeInitEv), (6 bytes).
    Removing device.o(.ARM.exidx), (8 bytes).
    Removing device.o(.ARM.exidx), (8 bytes).
    Removing device.o(.ARM.exidx), (8 bytes).
    Removing device.o(.ARM.exidx), (8 bytes).
    Removing device.o(.ARM.exidx), (8 bytes).
    Removing device.o(.ARM.exidx), (8 bytes).
    Removing gpio.o(.rev16_text), (4 bytes).
    Removing gpio.o(.revsh_text), (4 bytes).
    Removing gpio.o(.rrx_text), (6 bytes).
    Removing gpio.o(i._Z12gpio_pin_setP12GPIO_TypeDefjb), (14 bytes).
    Removing gpio.o(i._Z13gpio_pin_readP12GPIO_TypeDefj), (16 bytes).
    Removing gpio.o(i._Z13gpio_port_outP12GPIO_TypeDefj), (4 bytes).
    Removing gpio.o(i._Z13gpio_port_setP12GPIO_TypeDefj), (4 bytes).
    Removing gpio.o(i._Z15gpio_port_resetP12GPIO_TypeDefj), (6 bytes).
    Removing gpio.o(.ARM.exidx), (8 bytes).
    Removing gpio.o(.ARM.exidx), (8 bytes).
    Removing gpio.o(.ARM.exidx), (8 bytes).
    Removing gpio.o(.ARM.exidx), (8 bytes).
    Removing gpio.o(.ARM.exidx), (8 bytes).
    Removing gpio.o(.ARM.exidx), (8 bytes).
    Removing gpio.o(.ARM.exidx), (8 bytes).
    Removing gpio.o(.ARM.exidx), (8 bytes).
    Removing gpio.o(.ARM.exidx), (8 bytes).
    Removing enc28j60.o(.rev16_text), (4 bytes).
    Removing enc28j60.o(.revsh_text), (4 bytes).
    Removing enc28j60.o(.rrx_text), (6 bytes).
    Removing enc28j60.o(i._Z12enc28j60InitPh), (356 bytes).
    Removing enc28j60.o(i._Z12enc28j60Readh), (20 bytes).
    Removing enc28j60.o(i._Z13enc28j60Writehh), (24 bytes).
    Removing enc28j60.o(i._Z14enc28j60ReadOphh), (56 bytes).
    Removing enc28j60.o(i._Z14enc28j60clkouth), (16 bytes).
    Removing enc28j60.o(i._Z14enc28j60getrevv), (10 bytes).
    Removing enc28j60.o(i._Z15enc28j60PhyReadh), (66 bytes).
    Removing enc28j60.o(i._Z15enc28j60SetBankh), (52 bytes).
    Removing enc28j60.o(i._Z15enc28j60WriteOphhh), (46 bytes).
    Removing enc28j60.o(i._Z16enc28j60PhyWritehj), (50 bytes).
    Removing enc28j60.o(i._Z18enc28j60PacketSendjPh), (102 bytes).
    Removing enc28j60.o(i._Z18enc28j60ReadBufferjPh), (44 bytes).
    Removing enc28j60.o(i._Z19enc28j60WriteBufferjPh), (38 bytes).
    Removing enc28j60.o(i._Z21enc28j60PacketReceivejPh), (192 bytes).
    Removing enc28j60.o(i._ZN32_INTERNAL_10_enc28j60_c_db74034712enc28j60_cshEv), (24 bytes).
    Removing enc28j60.o(i._ZN32_INTERNAL_10_enc28j60_c_db74034712enc28j60_cslEv), (24 bytes).
    Removing enc28j60.o(.ARM.exidx), (8 bytes).
    Removing enc28j60.o(.ARM.exidx), (8 bytes).
    Removing enc28j60.o(.ARM.exidx), (8 bytes).
    Removing enc28j60.o(.ARM.exidx), (8 bytes).
    Removing enc28j60.o(.ARM.exidx), (8 bytes).
    Removing enc28j60.o(.ARM.exidx), (8 bytes).
    Removing enc28j60.o(.ARM.exidx), (8 bytes).
    Removing enc28j60.o(.ARM.exidx), (8 bytes).
    Removing enc28j60.o(.ARM.exidx), (8 bytes).
    Removing enc28j60.o(.ARM.exidx), (8 bytes).
    Removing enc28j60.o(.ARM.exidx), (8 bytes).
    Removing enc28j60.o(.ARM.exidx), (8 bytes).
    Removing enc28j60.o(.ARM.exidx), (8 bytes).
    Removing enc28j60.o(.ARM.exidx), (8 bytes).
    Removing enc28j60.o(.ARM.exidx), (8 bytes).
    Removing enc28j60.o(.ARM.exidx), (8 bytes).
    Removing enc28j60.o(.data), (12 bytes).
    Removing ip_arp_udp_tcp.o(.rev16_text), (4 bytes).
    Removing ip_arp_udp_tcp.o(.revsh_text), (4 bytes).
    Removing ip_arp_udp_tcp.o(.rrx_text), (6 bytes).
    Removing ip_arp_udp_tcp.o(i._Z12make_tcpheadPhjhh), (172 bytes).
    Removing ip_arp_udp_tcp.o(i._Z13fill_tcp_dataPhjPKc), (28 bytes).
    Removing ip_arp_udp_tcp.o(i._Z13init_len_infoPh), (64 bytes).
    Removing ip_arp_udp_tcp.o(i._Z15fill_tcp_data_pPhjPKh), (26 bytes).
    Removing ip_arp_udp_tcp.o(i._Z19init_ip_arp_udp_tcpPhS_h), (60 bytes).
    Removing ip_arp_udp_tcp.o(i._Z20fill_ip_hdr_checksumPh), (44 bytes).
    Removing ip_arp_udp_tcp.o(i._Z20get_tcp_data_pointerv), (28 bytes).
    Removing ip_arp_udp_tcp.o(i._Z21make_tcp_ack_from_anyPh), (104 bytes).
    Removing ip_arp_udp_tcp.o(i._Z22make_tcp_ack_with_dataPhj), (76 bytes).
    Removing ip_arp_udp_tcp.o(i._Z24eth_type_is_ip_and_my_ipPhj), (76 bytes).
    Removing ip_arp_udp_tcp.o(i._Z24make_tcp_synack_from_synPh), (76 bytes).
    Removing ip_arp_udp_tcp.o(i._Z25eth_type_is_arp_and_my_ipPhj), (68 bytes).
    Removing ip_arp_udp_tcp.o(i._Z27make_udp_reply_from_requestPhPcjj), (122 bytes).
    Removing ip_arp_udp_tcp.o(i._Z28make_arp_answer_from_requestPh), (100 bytes).
    Removing ip_arp_udp_tcp.o(i._Z28make_echo_reply_from_requestPhj), (62 bytes).
    Removing ip_arp_udp_tcp.o(i._Z7make_ipPh), (48 bytes).
    Removing ip_arp_udp_tcp.o(i._Z8checksumPhjh), (84 bytes).
    Removing ip_arp_udp_tcp.o(i._Z8make_ethPh), (36 bytes).
    Removing ip_arp_udp_tcp.o(i._ZN38_INTERNAL_16_ip_arp_udp_tcp_c_7981167412enc28j60_cshEv), (24 bytes).
    Removing ip_arp_udp_tcp.o(i._ZN38_INTERNAL_16_ip_arp_udp_tcp_c_7981167412enc28j60_cslEv), (24 bytes).
    Removing ip_arp_udp_tcp.o(.ARM.exidx), (8 bytes).
    Removing ip_arp_udp_tcp.o(.ARM.exidx), (8 bytes).
    Removing ip_arp_udp_tcp.o(.ARM.exidx), (8 bytes).
    Removing ip_arp_udp_tcp.o(.ARM.exidx), (8 bytes).
    Removing ip_arp_udp_tcp.o(.ARM.exidx), (8 bytes).
    Removing ip_arp_udp_tcp.o(.ARM.exidx), (8 bytes).
    Removing ip_arp_udp_tcp.o(.ARM.exidx), (8 bytes).
    Removing ip_arp_udp_tcp.o(.ARM.exidx), (8 bytes).
    Removing ip_arp_udp_tcp.o(.ARM.exidx), (8 bytes).
    Removing ip_arp_udp_tcp.o(.ARM.exidx), (8 bytes).
    Removing ip_arp_udp_tcp.o(.ARM.exidx), (8 bytes).
    Removing ip_arp_udp_tcp.o(.ARM.exidx), (8 bytes).
    Removing ip_arp_udp_tcp.o(.ARM.exidx), (8 bytes).
    Removing ip_arp_udp_tcp.o(.ARM.exidx), (8 bytes).
    Removing ip_arp_udp_tcp.o(.ARM.exidx), (8 bytes).
    Removing ip_arp_udp_tcp.o(.ARM.exidx), (8 bytes).
    Removing ip_arp_udp_tcp.o(.ARM.exidx), (8 bytes).
    Removing ip_arp_udp_tcp.o(.ARM.exidx), (8 bytes).
    Removing ip_arp_udp_tcp.o(.ARM.exidx), (8 bytes).
    Removing ip_arp_udp_tcp.o(.ARM.exidx), (8 bytes).
    Removing ip_arp_udp_tcp.o(.data), (21 bytes).
    Removing spi_enc28j60.o(.rev16_text), (4 bytes).
    Removing spi_enc28j60.o(.revsh_text), (4 bytes).
    Removing spi_enc28j60.o(.rrx_text), (6 bytes).
    Removing spi_enc28j60.o(i._Z14SPI1_ReadWriteh), (52 bytes).
    Removing spi_enc28j60.o(.ARM.exidx), (8 bytes).
    Removing spi_enc28j60.o(.data), (4 bytes).
    Removing sspi.o(.rev16_text), (4 bytes).
    Removing sspi.o(.revsh_text), (4 bytes).
    Removing sspi.o(.rrx_text), (6 bytes).
    Removing sspi.o(i._ZN4sspi3SpiEv), (2 bytes).
    Removing sspi.o(i._ZN4sspi4readEv), (40 bytes).
    Removing sspi.o(i._ZN4sspi5writeEh), (38 bytes).
    Removing sspi.o(i._ZN4sspi8delay_nsEj), (12 bytes).
    Removing sspi.o(i._ZN4sspi9readWriteEh), (6 bytes).
    Removing sspi.o(.ARM.exidx), (8 bytes).
    Removing sspi.o(.ARM.exidx), (8 bytes).
    Removing sspi.o(.ARM.exidx), (8 bytes).
    Removing sspi.o(.ARM.exidx), (8 bytes).
    Removing sspi.o(.ARM.exidx), (8 bytes).
    Removing phy_mac_interface.o(.rev16_text), (4 bytes).
    Removing phy_mac_interface.o(.revsh_text), (4 bytes).
    Removing phy_mac_interface.o(.rrx_text), (6 bytes).
    Removing phy_mac_interface.o(i._ZN15PhyMacInterface17chipPacketReceiveEjPh), (18 bytes).
    Removing phy_mac_interface.o(i._ZN15PhyMacInterface7mcuInitEPh), (40 bytes).
    Removing phy_mac_interface.o(i._ZN43_INTERNAL_21_phy_mac_interface_cpp_fc8e019012enc28j60_cshEv), (24 bytes).
    Removing phy_mac_interface.o(i._ZN43_INTERNAL_21_phy_mac_interface_cpp_fc8e019012enc28j60_cslEv), (24 bytes).
    Removing phy_mac_interface.o(.ARM.exidx), (8 bytes).
    Removing phy_mac_interface.o(.ARM.exidx), (8 bytes).
    Removing phy_mac_interface.o(.ARM.exidx), (8 bytes).
    Removing phy_mac_interface.o(.ARM.exidx), (8 bytes).
    Removing web_server.o(.rev16_text), (4 bytes).
    Removing web_server.o(.revsh_text), (4 bytes).
    Removing web_server.o(.rrx_text), (6 bytes).
    Removing web_server.o(i._Z10Web_Serverv), (756 bytes).
    Removing web_server.o(i._Z13print_webpagePhh), (484 bytes).
    Removing web_server.o(i._Z15analyse_get_urlPc), (82 bytes).
    Removing web_server.o(i._Z15verify_passwordPc), (28 bytes).
    Removing web_server.o(.ARM.exidx), (8 bytes).
    Removing web_server.o(.ARM.exidx), (8 bytes).
    Removing web_server.o(.ARM.exidx), (8 bytes).
    Removing web_server.o(.ARM.exidx), (8 bytes).
    Removing web_server.o(.bss), (1501 bytes).
    Removing web_server.o(.conststring), (152 bytes).
    Removing web_server.o(.data), (64 bytes).
    Removing web_interface.o(.rev16_text), (4 bytes).
    Removing web_interface.o(.revsh_text), (4 bytes).
    Removing web_interface.o(.rrx_text), (6 bytes).
    Removing web_interface.o(i._ZN18WebServerInterface18applySimpleCommandEi), (20 bytes).
    Removing web_interface.o(.ARM.exidx), (8 bytes).
    Removing system_stm32f7xx.o(.rev16_text), (4 bytes).
    Removing system_stm32f7xx.o(.revsh_text), (4 bytes).
    Removing system_stm32f7xx.o(.rrx_text), (6 bytes).
    Removing system_stm32f7xx.o(i.SystemCoreClockUpdate), (192 bytes).
    Removing system_stm32f7xx.o(.ARM.exidx), (8 bytes).
    Removing system_stm32f7xx.o(.ARM.exidx), (8 bytes).
    Removing system_stm32f7xx.o(.constdata), (16 bytes).
    Removing main.o(.ARM.exidx), (8 bytes).
    Removing main.o(.ARM.exidx), (8 bytes).
    Removing main.o(.constdata__ZTI12SynchronizerI11StepMotorABE), (8 bytes).
    Removing main.o(.constdata__ZTS12SynchronizerI11StepMotorABE), (30 bytes).
    Removing main.o(t._ZN12SynchronizerI11StepMotorABE9syncFetchERS0_), (20 bytes).
    Removing main.o(.ARM.exidx), (8 bytes).
    Removing main.o(t._ZN12SynchronizerI11StepMotorABE9syncFetchEPS0_), (20 bytes).
    Removing main.o(.ARM.exidx), (8 bytes).
    Removing main.o(t._ZN12SynchronizerI11StepMotorABE11syncReleaseERS0_), (6 bytes).
    Removing main.o(.ARM.exidx), (8 bytes).
    Removing main.o(t._ZN12SynchronizerI11StepMotorABE11syncReleaseEPS0_), (6 bytes).
    Removing main.o(.ARM.exidx), (8 bytes).
    Removing device.o(.constdata__ZTI11StepMotorAB), (12 bytes).
    Removing device.o(.constdata__ZTS11StepMotorAB), (14 bytes).
    Removing phy_mac_interface.o(.constdata__ZTV15PhyMacInterface), (32 bytes).
    Removing phy_mac_interface.o(t._ZN12SynchronizerI15PhyMacInterfaceE9syncFetchERS0_), (20 bytes).
    Removing phy_mac_interface.o(.ARM.exidx), (8 bytes).
    Removing phy_mac_interface.o(t._ZN12SynchronizerI15PhyMacInterfaceE9syncFetchEPS0_), (20 bytes).
    Removing phy_mac_interface.o(.ARM.exidx), (8 bytes).
    Removing phy_mac_interface.o(t._ZN12SynchronizerI15PhyMacInterfaceE11syncReleaseERS0_), (6 bytes).
    Removing phy_mac_interface.o(.ARM.exidx), (8 bytes).
    Removing phy_mac_interface.o(t._ZN12SynchronizerI15PhyMacInterfaceE11syncReleaseEPS0_), (6 bytes).
    Removing phy_mac_interface.o(.ARM.exidx), (8 bytes).
    Removing phy_mac_interface.o(.constdata__ZTI15PhyMacInterface), (12 bytes).
    Removing phy_mac_interface.o(.constdata__ZTI12SynchronizerI15PhyMacInterfaceE), (8 bytes).
    Removing phy_mac_interface.o(.constdata__ZTS15PhyMacInterface), (18 bytes).
    Removing phy_mac_interface.o(.constdata__ZTS12SynchronizerI15PhyMacInterfaceE), (34 bytes).
    Removing web_server.o(.constdata__ZTV12SynchronizerI15PhyMacInterfaceE), (24 bytes).

678 unused section(s) (total 29244 bytes) removed from the image.

==============================================================================

Image Symbol Table

    Local Symbols

    Symbol Name                              Value     Ov Type        Size  Object(Section)

    ../../../edgfe/lib_src/arm_exceptions.c  0x00000000   Number         0  arm_exceptions_mem.o ABSOLUTE
    ../../../edgfe/lib_src/arm_exceptions.c  0x00000000   Number         0  arm_exceptions_callterm.o ABSOLUTE
    ../../../edgfe/lib_src/arm_exceptions.c  0x00000000   Number         0  arm_exceptions_terminate.o ABSOLUTE
    ../../../edgfe/lib_src/arm_exceptions.c  0x00000000   Number         0  arm_exceptions_globs.o ABSOLUTE
    ../../../edgfe/lib_src/arm_exceptions.c  0x00000000   Number         0  arm_exceptions_support.o ABSOLUTE
    ../../../edgfe/lib_src/arm_noexceptions.c 0x00000000   Number         0  arm_begincatch_noexceptions.o ABSOLUTE
    ../../../edgfe/lib_src/guard.c           0x00000000   Number         0  cxa_guard_release.o ABSOLUTE
    ../../../edgfe/lib_src/guard.c           0x00000000   Number         0  cxa_guard_acquire.o ABSOLUTE
    ../../../edgfe/lib_src/typeinfo.c        0x00000000   Number         0  lib_rtti_impl.o ABSOLUTE
    ../../../edgfe/lib_src/typeinfo.c        0x00000000   Number         0  type_info_dtor.o ABSOLUTE
    ../clib/angel/boardlib.s                 0x00000000   Number         0  boardshut.o ABSOLUTE
    ../clib/angel/boardlib.s                 0x00000000   Number         0  boardinit3.o ABSOLUTE
    ../clib/angel/boardlib.s                 0x00000000   Number         0  boardinit2.o ABSOLUTE
    ../clib/angel/boardlib.s                 0x00000000   Number         0  boardinit1.o ABSOLUTE
    ../clib/angel/handlers.s                 0x00000000   Number         0  __scatter_zi.o ABSOLUTE
    ../clib/angel/handlers.s                 0x00000000   Number         0  __scatter_copy.o ABSOLUTE
    ../clib/angel/kernel.s                   0x00000000   Number         0  rtexit2.o ABSOLUTE
    ../clib/angel/kernel.s                   0x00000000   Number         0  __rtentry4.o ABSOLUTE
    ../clib/angel/kernel.s                   0x00000000   Number         0  rtexit.o ABSOLUTE
    ../clib/angel/kernel.s                   0x00000000   Number         0  __rtentry.o ABSOLUTE
    ../clib/angel/kernel.s                   0x00000000   Number         0  __rtentry2.o ABSOLUTE
    ../clib/angel/rt.s                       0x00000000   Number         0  rt_heap_descriptor.o ABSOLUTE
    ../clib/angel/rt.s                       0x00000000   Number         0  rt_heap_descriptor_intlibspace.o ABSOLUTE
    ../clib/angel/rt.s                       0x00000000   Number         0  rt_eh_globals_addr_intlibspace.o ABSOLUTE
    ../clib/angel/rt.s                       0x00000000   Number         0  rt_eh_globals_addr.o ABSOLUTE
    ../clib/angel/rt.s                       0x00000000   Number         0  rt_raise.o ABSOLUTE
    ../clib/angel/scatter.s                  0x00000000   Number         0  __scatter.o ABSOLUTE
    ../clib/angel/startup.s                  0x00000000   Number         0  __main.o ABSOLUTE
    ../clib/angel/sys.s                      0x00000000   Number         0  indicate_semi.o ABSOLUTE
    ../clib/angel/sys.s                      0x00000000   Number         0  sys_stackheap_outer.o ABSOLUTE
    ../clib/angel/sys.s                      0x00000000   Number         0  libspace.o ABSOLUTE
    ../clib/angel/sys.s                      0x00000000   Number         0  mutex_dummy.o ABSOLUTE
    ../clib/angel/sys.s                      0x00000000   Number         0  use_no_semi.o ABSOLUTE
    ../clib/angel/sysapp.c                   0x00000000   Number         0  sys_wrch.o ABSOLUTE
    ../clib/angel/sysapp.c                   0x00000000   Number         0  sys_exit.o ABSOLUTE
    ../clib/angel/sysapp.c                   0x00000000   Number         0  sys_command.o ABSOLUTE
    ../clib/armsys.c                         0x00000000   Number         0  no_argv.o ABSOLUTE
    ../clib/armsys.c                         0x00000000   Number         0  argv_veneer.o ABSOLUTE
    ../clib/armsys.c                         0x00000000   Number         0  argv_veneer.o ABSOLUTE
    ../clib/armsys.c                         0x00000000   Number         0  _get_argv_nomalloc.o ABSOLUTE
    ../clib/armsys.c                         0x00000000   Number         0  _get_argv.o ABSOLUTE
    ../clib/heap1.c                          0x00000000   Number         0  h1_free.o ABSOLUTE
    ../clib/heap1.c                          0x00000000   Number         0  h1_init.o ABSOLUTE
    ../clib/heap1.c                          0x00000000   Number         0  h1_final.o ABSOLUTE
    ../clib/heap1.c                          0x00000000   Number         0  h1_init_mt.o ABSOLUTE
    ../clib/heap1.c                          0x00000000   Number         0  h1_alloc.o ABSOLUTE
    ../clib/heap1.c                          0x00000000   Number         0  h1_alloc_mt.o ABSOLUTE
    ../clib/heap1.c                          0x00000000   Number         0  h1_extend_mt.o ABSOLUTE
    ../clib/heap1.c                          0x00000000   Number         0  h1_extend.o ABSOLUTE
    ../clib/heap1.c                          0x00000000   Number         0  h1_final_mt.o ABSOLUTE
    ../clib/heap1.c                          0x00000000   Number         0  h1_free_mt.o ABSOLUTE
    ../clib/heap2.c                          0x00000000   Number         0  fdtree.o ABSOLUTE
    ../clib/heap2.c                          0x00000000   Number         0  heap2.o ABSOLUTE
    ../clib/heap2.c                          0x00000000   Number         0  heap2mt.o ABSOLUTE
    ../clib/heapalloc.c                      0x00000000   Number         0  hrguard.o ABSOLUTE
    ../clib/heapalloc.c                      0x00000000   Number         0  term_alloc.o ABSOLUTE
    ../clib/heapalloc.c                      0x00000000   Number         0  init_alloc.o ABSOLUTE
    ../clib/heapalloc.c                      0x00000000   Number         0  maybetermalloc2.o ABSOLUTE
    ../clib/heapalloc.c                      0x00000000   Number         0  maybetermalloc2.o ABSOLUTE
    ../clib/heapalloc.c                      0x00000000   Number         0  maybetermalloc1.o ABSOLUTE
    ../clib/heapalloc.c                      0x00000000   Number         0  maybetermalloc1.o ABSOLUTE
    ../clib/heapalloc.c                      0x00000000   Number         0  heapstubs.o ABSOLUTE
    ../clib/heapalloc.c                      0x00000000   Number         0  malloc.o ABSOLUTE
    ../clib/heapalloc.c                      0x00000000   Number         0  free.o ABSOLUTE
    ../clib/heapalloc.c                      0x00000000   Number         0  hguard.o ABSOLUTE
    ../clib/heapaux.c                        0x00000000   Number         0  heapauxa.o ABSOLUTE
    ../clib/heapaux.c                        0x00000000   Number         0  heapauxi.o ABSOLUTE
    ../clib/libinit.s                        0x00000000   Number         0  libinit.o ABSOLUTE
    ../clib/libinit.s                        0x00000000   Number         0  libinit2.o ABSOLUTE
    ../clib/libinit.s                        0x00000000   Number         0  libshutdown2.o ABSOLUTE
    ../clib/libinit.s                        0x00000000   Number         0  libshutdown.o ABSOLUTE
    ../clib/memcpset.s                       0x00000000   Number         0  rt_memcpy_w.o ABSOLUTE
    ../clib/signal.c                         0x00000000   Number         0  defsig_exit.o ABSOLUTE
    ../clib/signal.c                         0x00000000   Number         0  defsig_rtmem_formal.o ABSOLUTE
    ../clib/signal.c                         0x00000000   Number         0  defsig_abrt_outer.o ABSOLUTE
    ../clib/signal.c                         0x00000000   Number         0  defsig_rtmem_outer.o ABSOLUTE
    ../clib/signal.c                         0x00000000   Number         0  __raise.o ABSOLUTE
    ../clib/signal.c                         0x00000000   Number         0  defsig_general.o ABSOLUTE
    ../clib/signal.c                         0x00000000   Number         0  defsig_abrt_inner.o ABSOLUTE
    ../clib/signal.c                         0x00000000   Number         0  defsig_rtred_inner.o ABSOLUTE
    ../clib/signal.c                         0x00000000   Number         0  defsig_stak_inner.o ABSOLUTE
    ../clib/signal.c                         0x00000000   Number         0  defsig_pvfn_inner.o ABSOLUTE
    ../clib/signal.c                         0x00000000   Number         0  defsig_cppl_inner.o ABSOLUTE
    ../clib/signal.c                         0x00000000   Number         0  defsig_segv_inner.o ABSOLUTE
    ../clib/signal.c                         0x00000000   Number         0  defsig_other.o ABSOLUTE
    ../clib/signal.c                         0x00000000   Number         0  defsig_rtmem_inner.o ABSOLUTE
    ../clib/signal.c                         0x00000000   Number         0  defsig_abrt_formal.o ABSOLUTE
    ../clib/signal.c                         0x00000000   Number         0  defsig_fpe_inner.o ABSOLUTE
    ../clib/signal.s                         0x00000000   Number         0  defsig.o ABSOLUTE
    ../clib/stdlib.c                         0x00000000   Number         0  exit.o ABSOLUTE
    ../clib/stdlib.c                         0x00000000   Number         0  abort.o ABSOLUTE
    ../clib/string.c                         0x00000000   Number         0  strncmp.o ABSOLUTE
    ../fplib/fpinit.s                        0x00000000   Number         0  fpinit.o ABSOLUTE
    ..\\stm32cubef7\\STM32Cube_FW_F7_V1.3.0\\Drivers\\STM32F7xx_HAL_Driver\\Src\\stm32f7xx_hal.c 0x00000000   Number         0  stm32f7xx_hal.o ABSOLUTE
    ..\\stm32cubef7\\STM32Cube_FW_F7_V1.3.0\\Drivers\\STM32F7xx_HAL_Driver\\Src\\stm32f7xx_hal_cortex.c 0x00000000   Number         0  stm32f7xx_hal_cortex.o ABSOLUTE
    ..\\stm32cubef7\\STM32Cube_FW_F7_V1.3.0\\Drivers\\STM32F7xx_HAL_Driver\\Src\\stm32f7xx_hal_dma.c 0x00000000   Number         0  stm32f7xx_hal_dma.o ABSOLUTE
    ..\\stm32cubef7\\STM32Cube_FW_F7_V1.3.0\\Drivers\\STM32F7xx_HAL_Driver\\Src\\stm32f7xx_hal_dma2d.c 0x00000000   Number         0  stm32f7xx_hal_dma2d.o ABSOLUTE
    ..\\stm32cubef7\\STM32Cube_FW_F7_V1.3.0\\Drivers\\STM32F7xx_HAL_Driver\\Src\\stm32f7xx_hal_dma_ex.c 0x00000000   Number         0  stm32f7xx_hal_dma_ex.o ABSOLUTE
    ..\\stm32cubef7\\STM32Cube_FW_F7_V1.3.0\\Drivers\\STM32F7xx_HAL_Driver\\Src\\stm32f7xx_hal_flash.c 0x00000000   Number         0  stm32f7xx_hal_flash.o ABSOLUTE
    ..\\stm32cubef7\\STM32Cube_FW_F7_V1.3.0\\Drivers\\STM32F7xx_HAL_Driver\\Src\\stm32f7xx_hal_flash_ex.c 0x00000000   Number         0  stm32f7xx_hal_flash_ex.o ABSOLUTE
    ..\\stm32cubef7\\STM32Cube_FW_F7_V1.3.0\\Drivers\\STM32F7xx_HAL_Driver\\Src\\stm32f7xx_hal_gpio.c 0x00000000   Number         0  stm32f7xx_hal_gpio.o ABSOLUTE
    ..\\stm32cubef7\\STM32Cube_FW_F7_V1.3.0\\Drivers\\STM32F7xx_HAL_Driver\\Src\\stm32f7xx_hal_pwr.c 0x00000000   Number         0  stm32f7xx_hal_pwr.o ABSOLUTE
    ..\\stm32cubef7\\STM32Cube_FW_F7_V1.3.0\\Drivers\\STM32F7xx_HAL_Driver\\Src\\stm32f7xx_hal_pwr_ex.c 0x00000000   Number         0  stm32f7xx_hal_pwr_ex.o ABSOLUTE
    ..\\stm32cubef7\\STM32Cube_FW_F7_V1.3.0\\Drivers\\STM32F7xx_HAL_Driver\\Src\\stm32f7xx_hal_rcc.c 0x00000000   Number         0  stm32f7xx_hal_rcc.o ABSOLUTE
    ..\\stm32cubef7\\STM32Cube_FW_F7_V1.3.0\\Drivers\\STM32F7xx_HAL_Driver\\Src\\stm32f7xx_hal_rcc_ex.c 0x00000000   Number         0  stm32f7xx_hal_rcc_ex.o ABSOLUTE
    ..\\stm32cubef7\\STM32Cube_FW_F7_V1.3.0\\Drivers\\STM32F7xx_HAL_Driver\\Src\\stm32f7xx_hal_spi.c 0x00000000   Number         0  stm32f7xx_hal_spi.o ABSOLUTE
    ..\stm32cubef7\STM32Cube_FW_F7_V1.3.0\Drivers\STM32F7xx_HAL_Driver\Src\stm32f7xx_hal.c 0x00000000   Number         0  stm32f7xx_hal.o ABSOLUTE
    ..\stm32cubef7\STM32Cube_FW_F7_V1.3.0\Drivers\STM32F7xx_HAL_Driver\Src\stm32f7xx_hal_cortex.c 0x00000000   Number         0  stm32f7xx_hal_cortex.o ABSOLUTE
    ..\stm32cubef7\STM32Cube_FW_F7_V1.3.0\Drivers\STM32F7xx_HAL_Driver\Src\stm32f7xx_hal_dma.c 0x00000000   Number         0  stm32f7xx_hal_dma.o ABSOLUTE
    ..\stm32cubef7\STM32Cube_FW_F7_V1.3.0\Drivers\STM32F7xx_HAL_Driver\Src\stm32f7xx_hal_dma2d.c 0x00000000   Number         0  stm32f7xx_hal_dma2d.o ABSOLUTE
    ..\stm32cubef7\STM32Cube_FW_F7_V1.3.0\Drivers\STM32F7xx_HAL_Driver\Src\stm32f7xx_hal_dma_ex.c 0x00000000   Number         0  stm32f7xx_hal_dma_ex.o ABSOLUTE
    ..\stm32cubef7\STM32Cube_FW_F7_V1.3.0\Drivers\STM32F7xx_HAL_Driver\Src\stm32f7xx_hal_flash.c 0x00000000   Number         0  stm32f7xx_hal_flash.o ABSOLUTE
    ..\stm32cubef7\STM32Cube_FW_F7_V1.3.0\Drivers\STM32F7xx_HAL_Driver\Src\stm32f7xx_hal_flash_ex.c 0x00000000   Number         0  stm32f7xx_hal_flash_ex.o ABSOLUTE
    ..\stm32cubef7\STM32Cube_FW_F7_V1.3.0\Drivers\STM32F7xx_HAL_Driver\Src\stm32f7xx_hal_gpio.c 0x00000000   Number         0  stm32f7xx_hal_gpio.o ABSOLUTE
    ..\stm32cubef7\STM32Cube_FW_F7_V1.3.0\Drivers\STM32F7xx_HAL_Driver\Src\stm32f7xx_hal_pwr.c 0x00000000   Number         0  stm32f7xx_hal_pwr.o ABSOLUTE
    ..\stm32cubef7\STM32Cube_FW_F7_V1.3.0\Drivers\STM32F7xx_HAL_Driver\Src\stm32f7xx_hal_pwr_ex.c 0x00000000   Number         0  stm32f7xx_hal_pwr_ex.o ABSOLUTE
    ..\stm32cubef7\STM32Cube_FW_F7_V1.3.0\Drivers\STM32F7xx_HAL_Driver\Src\stm32f7xx_hal_rcc.c 0x00000000   Number         0  stm32f7xx_hal_rcc.o ABSOLUTE
    ..\stm32cubef7\STM32Cube_FW_F7_V1.3.0\Drivers\STM32F7xx_HAL_Driver\Src\stm32f7xx_hal_rcc_ex.c 0x00000000   Number         0  stm32f7xx_hal_rcc_ex.o ABSOLUTE
    ..\stm32cubef7\STM32Cube_FW_F7_V1.3.0\Drivers\STM32F7xx_HAL_Driver\Src\stm32f7xx_hal_spi.c 0x00000000   Number         0  stm32f7xx_hal_spi.o ABSOLUTE
    RTE\Device\STM32F746IGTx\startup_stm32f746xx.s 0x00000000   Number         0  startup_stm32f746xx.o ABSOLUTE
    RTE\Device\STM32F746IGTx\system_stm32f7xx.c 0x00000000   Number         0  system_stm32f7xx.o ABSOLUTE
    RTE\\Device\\STM32F746IGTx\\system_stm32f7xx.c 0x00000000   Number         0  system_stm32f7xx.o ABSOLUTE
    dc.s                                     0x00000000   Number         0  dc.o ABSOLUTE
    device\\src\\device.cpp                  0x00000000   Number         0  device.o ABSOLUTE
    device\\src\\gpio.cpp                    0x00000000   Number         0  gpio.o ABSOLUTE
    device\src\device.cpp                    0x00000000   Number         0  device.o ABSOLUTE
    device\src\gpio.cpp                      0x00000000   Number         0  gpio.o ABSOLUTE
    ethernet\\src\\enc28j60.c                0x00000000   Number         0  enc28j60.o ABSOLUTE
    ethernet\\src\\ip_arp_udp_tcp.c          0x00000000   Number         0  ip_arp_udp_tcp.o ABSOLUTE
    ethernet\\src\\phy_mac_interface.cpp     0x00000000   Number         0  phy_mac_interface.o ABSOLUTE
    ethernet\\src\\spi_enc28j60.c            0x00000000   Number         0  spi_enc28j60.o ABSOLUTE
    ethernet\\src\\sspi.cpp                  0x00000000   Number         0  sspi.o ABSOLUTE
    ethernet\src\enc28j60.c                  0x00000000   Number         0  enc28j60.o ABSOLUTE
    ethernet\src\ip_arp_udp_tcp.c            0x00000000   Number         0  ip_arp_udp_tcp.o ABSOLUTE
    ethernet\src\phy_mac_interface.cpp       0x00000000   Number         0  phy_mac_interface.o ABSOLUTE
    ethernet\src\spi_enc28j60.c              0x00000000   Number         0  spi_enc28j60.o ABSOLUTE
    ethernet\src\sspi.cpp                    0x00000000   Number         0  sspi.o ABSOLUTE
    init\\src\\init.cpp                      0x00000000   Number         0  init.o ABSOLUTE
    init\src\init.cpp                        0x00000000   Number         0  init.o ABSOLUTE
    it\\src\\stm32f7xx_it.c                  0x00000000   Number         0  stm32f7xx_it.o ABSOLUTE
    it\src\stm32f7xx_it.c                    0x00000000   Number         0  stm32f7xx_it.o ABSOLUTE
    misc\ext_dev\src\step_motor.cpp          0x00000000   Number         0  step_motor.o ABSOLUTE
    user\\src\\main.cpp                      0x00000000   Number         0  main.o ABSOLUTE
    user\src\main.cpp                        0x00000000   Number         0  main.o ABSOLUTE
    web_server\\src\\web_interface.cpp       0x00000000   Number         0  web_interface.o ABSOLUTE
    web_server\\src\\web_server.c            0x00000000   Number         0  web_server.o ABSOLUTE
    web_server\src\web_interface.cpp         0x00000000   Number         0  web_interface.o ABSOLUTE
    web_server\src\web_server.c              0x00000000   Number         0  web_server.o ABSOLUTE
    RESET                                    0x08000000   Section      456  startup_stm32f746xx.o(RESET)
    !!!main                                  0x080001c8   Section        8  __main.o(!!!main)
    !!!scatter                               0x080001d0   Section       52  __scatter.o(!!!scatter)
    !!handler_copy                           0x08000204   Section       26  __scatter_copy.o(!!handler_copy)
    !!handler_zi                             0x08000220   Section       28  __scatter_zi.o(!!handler_zi)
    .ARM.Collect$$libinit$$00000000          0x0800023c   Section        2  libinit.o(.ARM.Collect$$libinit$$00000000)
    .ARM.Collect$$libinit$$00000001          0x0800023e   Section        4  libinit2.o(.ARM.Collect$$libinit$$00000001)
    .ARM.Collect$$libinit$$00000004          0x08000242   Section        0  libinit2.o(.ARM.Collect$$libinit$$00000004)
    .ARM.Collect$$libinit$$0000000A          0x08000242   Section        0  libinit2.o(.ARM.Collect$$libinit$$0000000A)
    .ARM.Collect$$libinit$$0000000C          0x08000242   Section        0  libinit2.o(.ARM.Collect$$libinit$$0000000C)
    .ARM.Collect$$libinit$$0000000E          0x08000242   Section        0  libinit2.o(.ARM.Collect$$libinit$$0000000E)
    .ARM.Collect$$libinit$$00000011          0x08000242   Section        0  libinit2.o(.ARM.Collect$$libinit$$00000011)
    .ARM.Collect$$libinit$$00000013          0x08000242   Section        0  libinit2.o(.ARM.Collect$$libinit$$00000013)
    .ARM.Collect$$libinit$$00000015          0x08000242   Section        0  libinit2.o(.ARM.Collect$$libinit$$00000015)
    .ARM.Collect$$libinit$$00000017          0x08000242   Section        0  libinit2.o(.ARM.Collect$$libinit$$00000017)
    .ARM.Collect$$libinit$$00000019          0x08000242   Section        0  libinit2.o(.ARM.Collect$$libinit$$00000019)
    .ARM.Collect$$libinit$$0000001B          0x08000242   Section        0  libinit2.o(.ARM.Collect$$libinit$$0000001B)
    .ARM.Collect$$libinit$$0000001D          0x08000242   Section        0  libinit2.o(.ARM.Collect$$libinit$$0000001D)
    .ARM.Collect$$libinit$$0000001F          0x08000242   Section        0  libinit2.o(.ARM.Collect$$libinit$$0000001F)
    .ARM.Collect$$libinit$$00000021          0x08000242   Section        0  libinit2.o(.ARM.Collect$$libinit$$00000021)
    .ARM.Collect$$libinit$$00000023          0x08000242   Section        0  libinit2.o(.ARM.Collect$$libinit$$00000023)
    .ARM.Collect$$libinit$$00000025          0x08000242   Section        0  libinit2.o(.ARM.Collect$$libinit$$00000025)
    .ARM.Collect$$libinit$$0000002C          0x08000242   Section        0  libinit2.o(.ARM.Collect$$libinit$$0000002C)
    .ARM.Collect$$libinit$$0000002E          0x08000242   Section        0  libinit2.o(.ARM.Collect$$libinit$$0000002E)
    .ARM.Collect$$libinit$$00000030          0x08000242   Section        0  libinit2.o(.ARM.Collect$$libinit$$00000030)
    .ARM.Collect$$libinit$$00000032          0x08000242   Section        0  libinit2.o(.ARM.Collect$$libinit$$00000032)
    .ARM.Collect$$libinit$$00000033          0x08000242   Section        2  libinit2.o(.ARM.Collect$$libinit$$00000033)
    .ARM.Collect$$libshutdown$$00000000      0x08000244   Section        2  libshutdown.o(.ARM.Collect$$libshutdown$$00000000)
    .ARM.Collect$$libshutdown$$00000002      0x08000246   Section        0  libshutdown2.o(.ARM.Collect$$libshutdown$$00000002)
    .ARM.Collect$$libshutdown$$00000004      0x08000246   Section        0  libshutdown2.o(.ARM.Collect$$libshutdown$$00000004)
    .ARM.Collect$$libshutdown$$00000007      0x08000246   Section        0  libshutdown2.o(.ARM.Collect$$libshutdown$$00000007)
    .ARM.Collect$$libshutdown$$0000000A      0x08000246   Section        0  libshutdown2.o(.ARM.Collect$$libshutdown$$0000000A)
    .ARM.Collect$$libshutdown$$0000000C      0x08000246   Section        0  libshutdown2.o(.ARM.Collect$$libshutdown$$0000000C)
    .ARM.Collect$$libshutdown$$0000000F      0x08000246   Section        0  libshutdown2.o(.ARM.Collect$$libshutdown$$0000000F)
    .ARM.Collect$$libshutdown$$00000010      0x08000246   Section        2  libshutdown2.o(.ARM.Collect$$libshutdown$$00000010)
    .ARM.Collect$$rtentry$$00000000          0x08000248   Section        0  __rtentry.o(.ARM.Collect$$rtentry$$00000000)
    .ARM.Collect$$rtentry$$00000002          0x08000248   Section        0  __rtentry2.o(.ARM.Collect$$rtentry$$00000002)
    .ARM.Collect$$rtentry$$00000004          0x08000248   Section        6  __rtentry4.o(.ARM.Collect$$rtentry$$00000004)
    .ARM.Collect$$rtentry$$00000009          0x0800024e   Section        0  __rtentry2.o(.ARM.Collect$$rtentry$$00000009)
    .ARM.Collect$$rtentry$$0000000A          0x0800024e   Section        4  __rtentry2.o(.ARM.Collect$$rtentry$$0000000A)
    .ARM.Collect$$rtentry$$0000000C          0x08000252   Section        0  __rtentry2.o(.ARM.Collect$$rtentry$$0000000C)
    .ARM.Collect$$rtentry$$0000000D          0x08000252   Section        8  __rtentry2.o(.ARM.Collect$$rtentry$$0000000D)
    .ARM.Collect$$rtexit$$00000000           0x0800025a   Section        2  rtexit.o(.ARM.Collect$$rtexit$$00000000)
    .ARM.Collect$$rtexit$$00000002           0x0800025c   Section        0  rtexit2.o(.ARM.Collect$$rtexit$$00000002)
    .ARM.Collect$$rtexit$$00000003           0x0800025c   Section        4  rtexit2.o(.ARM.Collect$$rtexit$$00000003)
    .ARM.Collect$$rtexit$$00000004           0x08000260   Section        6  rtexit2.o(.ARM.Collect$$rtexit$$00000004)
    .text                                    0x08000268   Section       64  startup_stm32f746xx.o(.text)
    $v0                                      0x08000268   Number         0  startup_stm32f746xx.o(.text)
    .text                                    0x080002a8   Section        0  heapauxi.o(.text)
    .text                                    0x080002ae   Section       74  sys_stackheap_outer.o(.text)
    .text                                    0x080002f8   Section        0  exit.o(.text)
    .text                                    0x0800030c   Section        0  sys_exit.o(.text)
    .text                                    0x08000318   Section        8  libspace.o(.text)
    .text                                    0x08000320   Section        2  use_no_semi.o(.text)
    .text                                    0x08000322   Section        0  indicate_semi.o(.text)
    i.BusFault_Handler                       0x08000322   Section        0  stm32f7xx_it.o(i.BusFault_Handler)
    i.DebugMon_Handler                       0x08000326   Section        0  stm32f7xx_it.o(i.DebugMon_Handler)
    i.HAL_Delay                              0x08000328   Section        0  stm32f7xx_hal.o(i.HAL_Delay)
    i.HAL_GPIO_Init                          0x08000344   Section        0  stm32f7xx_hal_gpio.o(i.HAL_GPIO_Init)
    i.HAL_GetTick                            0x08000560   Section        0  stm32f7xx_hal.o(i.HAL_GetTick)
    i.HAL_IncTick                            0x0800056c   Section        0  stm32f7xx_hal.o(i.HAL_IncTick)
    i.HAL_Init                               0x0800057c   Section        0  stm32f7xx_hal.o(i.HAL_Init)
    i.HAL_InitTick                           0x080005a4   Section        0  stm32f7xx_hal.o(i.HAL_InitTick)
    i.HAL_MPU_ConfigRegion                   0x080005c8   Section        0  stm32f7xx_hal_cortex.o(i.HAL_MPU_ConfigRegion)
    i.HAL_MspInit                            0x08000624   Section        0  stm32f7xx_hal.o(i.HAL_MspInit)
    i.HAL_NVIC_SetPriority                   0x0800062e   Section        0  stm32f7xx_hal_cortex.o(i.HAL_NVIC_SetPriority)
    i.HAL_NVIC_SetPriorityGrouping           0x080006ac   Section        0  stm32f7xx_hal_cortex.o(i.HAL_NVIC_SetPriorityGrouping)
    i.HAL_PWREx_EnableOverDrive              0x080006d4   Section        0  stm32f7xx_hal_pwr_ex.o(i.HAL_PWREx_EnableOverDrive)
    i.HAL_RCC_ClockConfig                    0x08000768   Section        0  stm32f7xx_hal_rcc.o(i.HAL_RCC_ClockConfig)
    i.HAL_RCC_GetHCLKFreq                    0x080009d0   Section        0  stm32f7xx_hal_rcc.o(i.HAL_RCC_GetHCLKFreq)
    i.HAL_RCC_GetSysClockFreq                0x08000a08   Section        0  stm32f7xx_hal_rcc.o(i.HAL_RCC_GetSysClockFreq)
    i.HAL_RCC_OscConfig                      0x08000abc   Section        0  stm32f7xx_hal_rcc.o(i.HAL_RCC_OscConfig)
    i.HAL_SPI_Init                           0x08001010   Section        0  stm32f7xx_hal_spi.o(i.HAL_SPI_Init)
    i.HAL_SPI_MspInit                        0x080010de   Section        0  stm32f7xx_hal_spi.o(i.HAL_SPI_MspInit)
    i.HAL_SYSTICK_CLKSourceConfig            0x080010e0   Section        0  stm32f7xx_hal_cortex.o(i.HAL_SYSTICK_CLKSourceConfig)
    i.HAL_SYSTICK_Config                     0x08001108   Section        0  stm32f7xx_hal_cortex.o(i.HAL_SYSTICK_Config)
    i.HardFault_Handler                      0x0800113c   Section        0  stm32f7xx_it.o(i.HardFault_Handler)
    i.MemManage_Handler                      0x08001140   Section        0  stm32f7xx_it.o(i.MemManage_Handler)
    i.NMI_Handler                            0x08001144   Section        0  stm32f7xx_it.o(i.NMI_Handler)
    i.PendSV_Handler                         0x08001146   Section        0  stm32f7xx_it.o(i.PendSV_Handler)
    i.SVC_Handler                            0x08001148   Section        0  stm32f7xx_it.o(i.SVC_Handler)
    i.SysTick_Handler                        0x0800114a   Section        0  stm32f7xx_it.o(i.SysTick_Handler)
    i.SystemInit                             0x08001154   Section        0  system_stm32f7xx.o(i.SystemInit)
    i.UsageFault_Handler                     0x080011b8   Section        0  stm32f7xx_it.o(i.UsageFault_Handler)
    i._Z10__delay_msi                        0x080011bc   Section        0  device.o(i._Z10__delay_msi)
    i._Z10__delay_nsi                        0x080011c8   Section        0  device.o(i._Z10__delay_nsi)
    i._Z12clock_enablev                      0x080011e0   Section        0  init.o(i._Z12clock_enablev)
    i._Z12gpio_pin_setP12GPIO_TypeDefj       0x08001320   Section        0  gpio.o(i._Z12gpio_pin_setP12GPIO_TypeDefj)
    i._Z13gpio_alt_initP12GPIO_TypeDefjjjj   0x08001324   Section        0  gpio.o(i._Z13gpio_alt_initP12GPIO_TypeDefjjjj)
    i._Z13gpio_pin_initP12GPIO_TypeDefjjj    0x08001354   Section        0  gpio.o(i._Z13gpio_pin_initP12GPIO_TypeDefjjj)
    i._Z14gpio_pin_resetP12GPIO_TypeDefj     0x08001380   Section        0  gpio.o(i._Z14gpio_pin_resetP12GPIO_TypeDefj)
    i._Z17SPI_Enc28j60_Initv                 0x08001388   Section        0  init.o(i._Z17SPI_Enc28j60_Initv)
    i._Z18SystemClock_Configv                0x080013f4   Section        0  init.o(i._Z18SystemClock_Configv)
    i._Z8spi_initv                           0x080014c4   Section        0  init.o(i._Z8spi_initv)
    i._Z9core_initv                          0x080014c6   Section        0  init.o(i._Z9core_initv)
    i._Z9gpio_initv                          0x080014d8   Section        0  init.o(i._Z9gpio_initv)
    i._ZN29_INTERNAL_8_init_cpp_8c3459f110MPU_ConfigEv 0x08001578   Section        0  init.o(i._ZN29_INTERNAL_8_init_cpp_8c3459f110MPU_ConfigEv)
    [local to init_cpp]::MPU_Config()        0x08001579   Thumb Code   124  init.o(i._ZN29_INTERNAL_8_init_cpp_8c3459f110MPU_ConfigEv)
    i._ZN29_INTERNAL_8_init_cpp_8c3459f116CPU_CACHE_EnableEv 0x080015fc   Section        0  init.o(i._ZN29_INTERNAL_8_init_cpp_8c3459f116CPU_CACHE_EnableEv)
    [local to init_cpp]::CPU_CACHE_Enable()  0x080015fd   Thumb Code    96  init.o(i._ZN29_INTERNAL_8_init_cpp_8c3459f116CPU_CACHE_EnableEv)
    i._ZN29_INTERNAL_8_init_cpp_8c3459f116SCB_EnableDCacheEv 0x08001664   Section        0  init.o(i._ZN29_INTERNAL_8_init_cpp_8c3459f116SCB_EnableDCacheEv)
    [local to init_cpp]::SCB_EnableDCache()  0x08001665   Thumb Code   148  init.o(i._ZN29_INTERNAL_8_init_cpp_8c3459f116SCB_EnableDCacheEv)
    i._ZN44_INTERNAL_22_stm32f7xx_hal_cortex_c_2992dbc016NVIC_SetPriorityE9IRQn_Typej 0x08001700   Section        0  stm32f7xx_hal_cortex.o(i._ZN44_INTERNAL_22_stm32f7xx_hal_cortex_c_2992dbc016NVIC_SetPriorityE9IRQn_Typej)
    [local to stm32f7xx_hal_cortex_c]::NVIC_SetPriority(IRQn_Type, unsigned) 0x08001701   Thumb Code    32  stm32f7xx_hal_cortex.o(i._ZN44_INTERNAL_22_stm32f7xx_hal_cortex_c_2992dbc016NVIC_SetPriorityE9IRQn_Typej)
    i._ZN44_INTERNAL_22_stm32f7xx_hal_cortex_c_2992dbc024NVIC_GetPriorityGroupingEv 0x08001728   Section        0  stm32f7xx_hal_cortex.o(i._ZN44_INTERNAL_22_stm32f7xx_hal_cortex_c_2992dbc024NVIC_GetPriorityGroupingEv)
    [local to stm32f7xx_hal_cortex_c]::NVIC_GetPriorityGrouping() 0x08001729   Thumb Code    10  stm32f7xx_hal_cortex.o(i._ZN44_INTERNAL_22_stm32f7xx_hal_cortex_c_2992dbc024NVIC_GetPriorityGroupingEv)
    i._ZN6Device7goIddleEv                   0x08001738   Section        0  main.o(i._ZN6Device7goIddleEv)
    i._ZN6DeviceC1Ev                         0x08001778   Section        0  main.o(i._ZN6DeviceC1Ev)
    i.__cxa_guard_acquire                    0x08001874   Section        0  cxa_guard_acquire.o(i.__cxa_guard_acquire)
    i.main                                   0x08001884   Section        0  main.o(i.main)
    x$fpl$fpinit                             0x0800188c   Section       10  fpinit.o(x$fpl$fpinit)
    $v0                                      0x0800188c   Number         0  fpinit.o(x$fpl$fpinit)
    .constdata                               0x08001896   Section       16  stm32f7xx_hal_rcc.o(.constdata)
    APBAHBPrescTable                         0x08001896   Data          16  stm32f7xx_hal_rcc.o(.constdata)
    .constdata__ZTV11StepMotorAB             0x080018a8   Section       40  device.o(.constdata__ZTV11StepMotorAB)
    .constdata__ZTV12SynchronizerI11StepMotorABE 0x080018d0   Section       24  main.o(.constdata__ZTV12SynchronizerI11StepMotorABE)
    .data                                    0x20010000   Section        4  stm32f7xx_hal.o(.data)
    uwTick                                   0x20010000   Data           4  stm32f7xx_hal.o(.data)
    .data                                    0x20010004   Section        4  web_interface.o(.data)
    .data                                    0x20010008   Section        4  system_stm32f7xx.o(.data)
    .data__ZZN6DeviceC1EvE3web               0x2001000c   Section        8  main.o(.data__ZZN6DeviceC1EvE3web)
    Device::Device()::web                    0x2001000c   Number         0  main.o(.data__ZZN6DeviceC1EvE3web)
    .bss                                     0x20010014   Section      100  init.o(.bss)
    .bss                                     0x20010078   Section       40  gpio.o(.bss)
    gpio_pin_init(GPIO_TypeDef*, unsigned, unsigned, unsigned)::GPIO_InitStruct 0x20010078   Data          20  gpio.o(.bss)
    gpio_alt_init(GPIO_TypeDef*, unsigned, unsigned, unsigned, unsigned)::GPIO_InitStruct 0x2001008c   Data          20  gpio.o(.bss)
    .bss                                     0x200100a0   Section       96  libspace.o(.bss)
    HEAP                                     0x20010100   Section      512  startup_stm32f746xx.o(HEAP)
    Heap_Mem                                 0x20010100   Data         512  startup_stm32f746xx.o(HEAP)
    STACK                                    0x20010300   Section     1024  startup_stm32f746xx.o(STACK)
    Stack_Mem                                0x20010300   Data        1024  startup_stm32f746xx.o(STACK)
    __initial_sp                             0x20010700   Data           0  startup_stm32f746xx.o(STACK)

    Global Symbols

    Symbol Name                              Value     Ov Type        Size  Object(Section)

    BuildAttributes$$THM_ISAv4$E$P$D$K$B$S$7EM$VFPi5$EXTD16$VFPS$VFMA$PE$PLD8$A:L22UL41UL21$X:L11$S22US41US21$IEEE1$IW$USESV6$~STKCKD$USESV7$~SHL$OTIME$ROPI$EBA8$UX$STANDARDLIB$REQ8$PRES8$EABIv2 0x00000000   Number         0  anon$$obj.o ABSOLUTE
    __ARM_use_no_argv                        0x00000000   Number         0  main.o ABSOLUTE
    __ARM::default_unexpected_handler()       - Undefined Weak Reference
    __ARM_exceptions_buffer_required          - Undefined Weak Reference
    __ARM_exceptions_init                     - Undefined Weak Reference
    __alloca_initialize                       - Undefined Weak Reference
    __arm_preinit_                            - Undefined Weak Reference
    __cpp_initialize__aeabi_                  - Undefined Weak Reference
    __cxa_finalize                            - Undefined Weak Reference
    __rt_locale                               - Undefined Weak Reference
    __sigvec_lookup                           - Undefined Weak Reference
    __user_heap_extent                        - Undefined Weak Reference
    _atexit_init                              - Undefined Weak Reference
    _call_atexit_fns                          - Undefined Weak Reference
    _clock_init                               - Undefined Weak Reference
    _fp_trap_init                             - Undefined Weak Reference
    _fp_trap_shutdown                         - Undefined Weak Reference
    _get_lc_collate                           - Undefined Weak Reference
    _get_lc_ctype                             - Undefined Weak Reference
    _get_lc_monetary                          - Undefined Weak Reference
    _get_lc_numeric                           - Undefined Weak Reference
    _get_lc_time                              - Undefined Weak Reference
    _getenv_init                              - Undefined Weak Reference
    _handle_redirection                       - Undefined Weak Reference
    _initio                                   - Undefined Weak Reference
    _mutex_acquire                            - Undefined Weak Reference
    _mutex_free                               - Undefined Weak Reference
    _mutex_release                            - Undefined Weak Reference
    _rand_init                                - Undefined Weak Reference
    _signal_finish                            - Undefined Weak Reference
    _signal_init                              - Undefined Weak Reference
    _terminateio                              - Undefined Weak Reference
    __Vectors_Size                           0x000001c8   Number         0  startup_stm32f746xx.o ABSOLUTE
    __Vectors                                0x08000000   Data           4  startup_stm32f746xx.o(RESET)
    __Vectors_End                            0x080001c8   Data           0  startup_stm32f746xx.o(RESET)
    __main                                   0x080001c9   Thumb Code     8  __main.o(!!!main)
    __scatterload                            0x080001d1   Thumb Code     0  __scatter.o(!!!scatter)
    __scatterload_rt2                        0x080001d1   Thumb Code    44  __scatter.o(!!!scatter)
    __scatterload_rt2_thumb_only             0x080001d1   Thumb Code     0  __scatter.o(!!!scatter)
    __scatterload_null                       0x080001df   Thumb Code     0  __scatter.o(!!!scatter)
    __scatterload_copy                       0x08000205   Thumb Code    26  __scatter_copy.o(!!handler_copy)
    __scatterload_zeroinit                   0x08000221   Thumb Code    28  __scatter_zi.o(!!handler_zi)
    __rt_lib_init                            0x0800023d   Thumb Code     0  libinit.o(.ARM.Collect$$libinit$$00000000)
    __rt_lib_init_fp_1                       0x0800023f   Thumb Code     0  libinit2.o(.ARM.Collect$$libinit$$00000001)
    __rt_lib_init_alloca_1                   0x08000243   Thumb Code     0  libinit2.o(.ARM.Collect$$libinit$$0000002E)
    __rt_lib_init_argv_1                     0x08000243   Thumb Code     0  libinit2.o(.ARM.Collect$$libinit$$0000002C)
    __rt_lib_init_atexit_1                   0x08000243   Thumb Code     0  libinit2.o(.ARM.Collect$$libinit$$0000001B)
    __rt_lib_init_clock_1                    0x08000243   Thumb Code     0  libinit2.o(.ARM.Collect$$libinit$$00000021)
    __rt_lib_init_cpp_1                      0x08000243   Thumb Code     0  libinit2.o(.ARM.Collect$$libinit$$00000032)
    __rt_lib_init_exceptions_1               0x08000243   Thumb Code     0  libinit2.o(.ARM.Collect$$libinit$$00000030)
    __rt_lib_init_fp_trap_1                  0x08000243   Thumb Code     0  libinit2.o(.ARM.Collect$$libinit$$0000001F)
    __rt_lib_init_getenv_1                   0x08000243   Thumb Code     0  libinit2.o(.ARM.Collect$$libinit$$00000023)
    __rt_lib_init_heap_1                     0x08000243   Thumb Code     0  libinit2.o(.ARM.Collect$$libinit$$0000000A)
    __rt_lib_init_lc_collate_1               0x08000243   Thumb Code     0  libinit2.o(.ARM.Collect$$libinit$$00000011)
    __rt_lib_init_lc_ctype_1                 0x08000243   Thumb Code     0  libinit2.o(.ARM.Collect$$libinit$$00000013)
    __rt_lib_init_lc_monetary_1              0x08000243   Thumb Code     0  libinit2.o(.ARM.Collect$$libinit$$00000015)
    __rt_lib_init_lc_numeric_1               0x08000243   Thumb Code     0  libinit2.o(.ARM.Collect$$libinit$$00000017)
    __rt_lib_init_lc_time_1                  0x08000243   Thumb Code     0  libinit2.o(.ARM.Collect$$libinit$$00000019)
    __rt_lib_init_preinit_1                  0x08000243   Thumb Code     0  libinit2.o(.ARM.Collect$$libinit$$00000004)
    __rt_lib_init_rand_1                     0x08000243   Thumb Code     0  libinit2.o(.ARM.Collect$$libinit$$0000000E)
    __rt_lib_init_return                     0x08000243   Thumb Code     0  libinit2.o(.ARM.Collect$$libinit$$00000033)
    __rt_lib_init_signal_1                   0x08000243   Thumb Code     0  libinit2.o(.ARM.Collect$$libinit$$0000001D)
    __rt_lib_init_stdio_1                    0x08000243   Thumb Code     0  libinit2.o(.ARM.Collect$$libinit$$00000025)
    __rt_lib_init_user_alloc_1               0x08000243   Thumb Code     0  libinit2.o(.ARM.Collect$$libinit$$0000000C)
    __rt_lib_shutdown                        0x08000245   Thumb Code     0  libshutdown.o(.ARM.Collect$$libshutdown$$00000000)
    __rt_lib_shutdown_cpp_1                  0x08000247   Thumb Code     0  libshutdown2.o(.ARM.Collect$$libshutdown$$00000002)
    __rt_lib_shutdown_fp_trap_1              0x08000247   Thumb Code     0  libshutdown2.o(.ARM.Collect$$libshutdown$$00000007)
    __rt_lib_shutdown_heap_1                 0x08000247   Thumb Code     0  libshutdown2.o(.ARM.Collect$$libshutdown$$0000000F)
    __rt_lib_shutdown_return                 0x08000247   Thumb Code     0  libshutdown2.o(.ARM.Collect$$libshutdown$$00000010)
    __rt_lib_shutdown_signal_1               0x08000247   Thumb Code     0  libshutdown2.o(.ARM.Collect$$libshutdown$$0000000A)
    __rt_lib_shutdown_stdio_1                0x08000247   Thumb Code     0  libshutdown2.o(.ARM.Collect$$libshutdown$$00000004)
    __rt_lib_shutdown_user_alloc_1           0x08000247   Thumb Code     0  libshutdown2.o(.ARM.Collect$$libshutdown$$0000000C)
    __rt_entry                               0x08000249   Thumb Code     0  __rtentry.o(.ARM.Collect$$rtentry$$00000000)
    __rt_entry_presh_1                       0x08000249   Thumb Code     0  __rtentry2.o(.ARM.Collect$$rtentry$$00000002)
    __rt_entry_sh                            0x08000249   Thumb Code     0  __rtentry4.o(.ARM.Collect$$rtentry$$00000004)
    __rt_entry_li                            0x0800024f   Thumb Code     0  __rtentry2.o(.ARM.Collect$$rtentry$$0000000A)
    __rt_entry_postsh_1                      0x0800024f   Thumb Code     0  __rtentry2.o(.ARM.Collect$$rtentry$$00000009)
    __rt_entry_main                          0x08000253   Thumb Code     0  __rtentry2.o(.ARM.Collect$$rtentry$$0000000D)
    __rt_entry_postli_1                      0x08000253   Thumb Code     0  __rtentry2.o(.ARM.Collect$$rtentry$$0000000C)
    __rt_exit                                0x0800025b   Thumb Code     0  rtexit.o(.ARM.Collect$$rtexit$$00000000)
    __rt_exit_ls                             0x0800025d   Thumb Code     0  rtexit2.o(.ARM.Collect$$rtexit$$00000003)
    __rt_exit_prels_1                        0x0800025d   Thumb Code     0  rtexit2.o(.ARM.Collect$$rtexit$$00000002)
    __rt_exit_exit                           0x08000261   Thumb Code     0  rtexit2.o(.ARM.Collect$$rtexit$$00000004)
    Reset_Handler                            0x08000269   Thumb Code     8  startup_stm32f746xx.o(.text)
    ADC_IRQHandler                           0x08000283   Thumb Code     0  startup_stm32f746xx.o(.text)
    CAN1_RX0_IRQHandler                      0x08000283   Thumb Code     0  startup_stm32f746xx.o(.text)
    CAN1_RX1_IRQHandler                      0x08000283   Thumb Code     0  startup_stm32f746xx.o(.text)
    CAN1_SCE_IRQHandler                      0x08000283   Thumb Code     0  startup_stm32f746xx.o(.text)
    CAN1_TX_IRQHandler                       0x08000283   Thumb Code     0  startup_stm32f746xx.o(.text)
    CAN2_RX0_IRQHandler                      0x08000283   Thumb Code     0  startup_stm32f746xx.o(.text)
    CAN2_RX1_IRQHandler                      0x08000283   Thumb Code     0  startup_stm32f746xx.o(.text)
    CAN2_SCE_IRQHandler                      0x08000283   Thumb Code     0  startup_stm32f746xx.o(.text)
    CAN2_TX_IRQHandler                       0x08000283   Thumb Code     0  startup_stm32f746xx.o(.text)
    CEC_IRQHandler                           0x08000283   Thumb Code     0  startup_stm32f746xx.o(.text)
    DCMI_IRQHandler                          0x08000283   Thumb Code     0  startup_stm32f746xx.o(.text)
    DMA1_Stream0_IRQHandler                  0x08000283   Thumb Code     0  startup_stm32f746xx.o(.text)
    DMA1_Stream1_IRQHandler                  0x08000283   Thumb Code     0  startup_stm32f746xx.o(.text)
    DMA1_Stream2_IRQHandler                  0x08000283   Thumb Code     0  startup_stm32f746xx.o(.text)
    DMA1_Stream3_IRQHandler                  0x08000283   Thumb Code     0  startup_stm32f746xx.o(.text)
    DMA1_Stream4_IRQHandler                  0x08000283   Thumb Code     0  startup_stm32f746xx.o(.text)
    DMA1_Stream5_IRQHandler                  0x08000283   Thumb Code     0  startup_stm32f746xx.o(.text)
    DMA1_Stream6_IRQHandler                  0x08000283   Thumb Code     0  startup_stm32f746xx.o(.text)
    DMA1_Stream7_IRQHandler                  0x08000283   Thumb Code     0  startup_stm32f746xx.o(.text)
    DMA2D_IRQHandler                         0x08000283   Thumb Code     0  startup_stm32f746xx.o(.text)
    DMA2_Stream0_IRQHandler                  0x08000283   Thumb Code     0  startup_stm32f746xx.o(.text)
    DMA2_Stream1_IRQHandler                  0x08000283   Thumb Code     0  startup_stm32f746xx.o(.text)
    DMA2_Stream2_IRQHandler                  0x08000283   Thumb Code     0  startup_stm32f746xx.o(.text)
    DMA2_Stream3_IRQHandler                  0x08000283   Thumb Code     0  startup_stm32f746xx.o(.text)
    DMA2_Stream4_IRQHandler                  0x08000283   Thumb Code     0  startup_stm32f746xx.o(.text)
    DMA2_Stream5_IRQHandler                  0x08000283   Thumb Code     0  startup_stm32f746xx.o(.text)
    DMA2_Stream6_IRQHandler                  0x08000283   Thumb Code     0  startup_stm32f746xx.o(.text)
    DMA2_Stream7_IRQHandler                  0x08000283   Thumb Code     0  startup_stm32f746xx.o(.text)
    ETH_IRQHandler                           0x08000283   Thumb Code     0  startup_stm32f746xx.o(.text)
    ETH_WKUP_IRQHandler                      0x08000283   Thumb Code     0  startup_stm32f746xx.o(.text)
    EXTI0_IRQHandler                         0x08000283   Thumb Code     0  startup_stm32f746xx.o(.text)
    EXTI15_10_IRQHandler                     0x08000283   Thumb Code     0  startup_stm32f746xx.o(.text)
    EXTI1_IRQHandler                         0x08000283   Thumb Code     0  startup_stm32f746xx.o(.text)
    EXTI2_IRQHandler                         0x08000283   Thumb Code     0  startup_stm32f746xx.o(.text)
    EXTI3_IRQHandler                         0x08000283   Thumb Code     0  startup_stm32f746xx.o(.text)
    EXTI4_IRQHandler                         0x08000283   Thumb Code     0  startup_stm32f746xx.o(.text)
    EXTI9_5_IRQHandler                       0x08000283   Thumb Code     0  startup_stm32f746xx.o(.text)
    FLASH_IRQHandler                         0x08000283   Thumb Code     0  startup_stm32f746xx.o(.text)
    FMC_IRQHandler                           0x08000283   Thumb Code     0  startup_stm32f746xx.o(.text)
    FPU_IRQHandler                           0x08000283   Thumb Code     0  startup_stm32f746xx.o(.text)
    I2C1_ER_IRQHandler                       0x08000283   Thumb Code     0  startup_stm32f746xx.o(.text)
    I2C1_EV_IRQHandler                       0x08000283   Thumb Code     0  startup_stm32f746xx.o(.text)
    I2C2_ER_IRQHandler                       0x08000283   Thumb Code     0  startup_stm32f746xx.o(.text)
    I2C2_EV_IRQHandler                       0x08000283   Thumb Code     0  startup_stm32f746xx.o(.text)
    I2C3_ER_IRQHandler                       0x08000283   Thumb Code     0  startup_stm32f746xx.o(.text)
    I2C3_EV_IRQHandler                       0x08000283   Thumb Code     0  startup_stm32f746xx.o(.text)
    I2C4_ER_IRQHandler                       0x08000283   Thumb Code     0  startup_stm32f746xx.o(.text)
    I2C4_EV_IRQHandler                       0x08000283   Thumb Code     0  startup_stm32f746xx.o(.text)
    LPTIM1_IRQHandler                        0x08000283   Thumb Code     0  startup_stm32f746xx.o(.text)
    LTDC_ER_IRQHandler                       0x08000283   Thumb Code     0  startup_stm32f746xx.o(.text)
    LTDC_IRQHandler                          0x08000283   Thumb Code     0  startup_stm32f746xx.o(.text)
    OTG_FS_IRQHandler                        0x08000283   Thumb Code     0  startup_stm32f746xx.o(.text)
    OTG_FS_WKUP_IRQHandler                   0x08000283   Thumb Code     0  startup_stm32f746xx.o(.text)
    OTG_HS_EP1_IN_IRQHandler                 0x08000283   Thumb Code     0  startup_stm32f746xx.o(.text)
    OTG_HS_EP1_OUT_IRQHandler                0x08000283   Thumb Code     0  startup_stm32f746xx.o(.text)
    OTG_HS_IRQHandler                        0x08000283   Thumb Code     0  startup_stm32f746xx.o(.text)
    OTG_HS_WKUP_IRQHandler                   0x08000283   Thumb Code     0  startup_stm32f746xx.o(.text)
    PVD_IRQHandler                           0x08000283   Thumb Code     0  startup_stm32f746xx.o(.text)
    QUADSPI_IRQHandler                       0x08000283   Thumb Code     0  startup_stm32f746xx.o(.text)
    RCC_IRQHandler                           0x08000283   Thumb Code     0  startup_stm32f746xx.o(.text)
    RNG_IRQHandler                           0x08000283   Thumb Code     0  startup_stm32f746xx.o(.text)
    RTC_Alarm_IRQHandler                     0x08000283   Thumb Code     0  startup_stm32f746xx.o(.text)
    RTC_WKUP_IRQHandler                      0x08000283   Thumb Code     0  startup_stm32f746xx.o(.text)
    SAI1_IRQHandler                          0x08000283   Thumb Code     0  startup_stm32f746xx.o(.text)
    SAI2_IRQHandler                          0x08000283   Thumb Code     0  startup_stm32f746xx.o(.text)
    SDMMC1_IRQHandler                        0x08000283   Thumb Code     0  startup_stm32f746xx.o(.text)
    SPDIF_RX_IRQHandler                      0x08000283   Thumb Code     0  startup_stm32f746xx.o(.text)
    SPI1_IRQHandler                          0x08000283   Thumb Code     0  startup_stm32f746xx.o(.text)
    SPI2_IRQHandler                          0x08000283   Thumb Code     0  startup_stm32f746xx.o(.text)
    SPI3_IRQHandler                          0x08000283   Thumb Code     0  startup_stm32f746xx.o(.text)
    SPI4_IRQHandler                          0x08000283   Thumb Code     0  startup_stm32f746xx.o(.text)
    SPI5_IRQHandler                          0x08000283   Thumb Code     0  startup_stm32f746xx.o(.text)
    SPI6_IRQHandler                          0x08000283   Thumb Code     0  startup_stm32f746xx.o(.text)
    TAMP_STAMP_IRQHandler                    0x08000283   Thumb Code     0  startup_stm32f746xx.o(.text)
    TIM1_BRK_TIM9_IRQHandler                 0x08000283   Thumb Code     0  startup_stm32f746xx.o(.text)
    TIM1_CC_IRQHandler                       0x08000283   Thumb Code     0  startup_stm32f746xx.o(.text)
    TIM1_TRG_COM_TIM11_IRQHandler            0x08000283   Thumb Code     0  startup_stm32f746xx.o(.text)
    TIM1_UP_TIM10_IRQHandler                 0x08000283   Thumb Code     0  startup_stm32f746xx.o(.text)
    TIM2_IRQHandler                          0x08000283   Thumb Code     0  startup_stm32f746xx.o(.text)
    TIM3_IRQHandler                          0x08000283   Thumb Code     0  startup_stm32f746xx.o(.text)
    TIM4_IRQHandler                          0x08000283   Thumb Code     0  startup_stm32f746xx.o(.text)
    TIM5_IRQHandler                          0x08000283   Thumb Code     0  startup_stm32f746xx.o(.text)
    TIM6_DAC_IRQHandler                      0x08000283   Thumb Code     0  startup_stm32f746xx.o(.text)
    TIM7_IRQHandler                          0x08000283   Thumb Code     0  startup_stm32f746xx.o(.text)
    TIM8_BRK_TIM12_IRQHandler                0x08000283   Thumb Code     0  startup_stm32f746xx.o(.text)
    TIM8_CC_IRQHandler                       0x08000283   Thumb Code     0  startup_stm32f746xx.o(.text)
    TIM8_TRG_COM_TIM14_IRQHandler            0x08000283   Thumb Code     0  startup_stm32f746xx.o(.text)
    TIM8_UP_TIM13_IRQHandler                 0x08000283   Thumb Code     0  startup_stm32f746xx.o(.text)
    UART4_IRQHandler                         0x08000283   Thumb Code     0  startup_stm32f746xx.o(.text)
    UART5_IRQHandler                         0x08000283   Thumb Code     0  startup_stm32f746xx.o(.text)
    UART7_IRQHandler                         0x08000283   Thumb Code     0  startup_stm32f746xx.o(.text)
    UART8_IRQHandler                         0x08000283   Thumb Code     0  startup_stm32f746xx.o(.text)
    USART1_IRQHandler                        0x08000283   Thumb Code     0  startup_stm32f746xx.o(.text)
    USART2_IRQHandler                        0x08000283   Thumb Code     0  startup_stm32f746xx.o(.text)
    USART3_IRQHandler                        0x08000283   Thumb Code     0  startup_stm32f746xx.o(.text)
    USART6_IRQHandler                        0x08000283   Thumb Code     0  startup_stm32f746xx.o(.text)
    WWDG_IRQHandler                          0x08000283   Thumb Code     0  startup_stm32f746xx.o(.text)
    __user_initial_stackheap                 0x08000285   Thumb Code     0  startup_stm32f746xx.o(.text)
    __use_two_region_memory                  0x080002a9   Thumb Code     2  heapauxi.o(.text)
    __rt_heap_escrow                         0x080002ab   Thumb Code     2  heapauxi.o(.text)
    __rt_heap_expand                         0x080002ad   Thumb Code     2  heapauxi.o(.text)
    __user_setup_stackheap                   0x080002af   Thumb Code    74  sys_stackheap_outer.o(.text)
    exit                                     0x080002f9   Thumb Code    18  exit.o(.text)
    _sys_exit                                0x0800030d   Thumb Code     8  sys_exit.o(.text)
    __user_libspace                          0x08000319   Thumb Code     8  libspace.o(.text)
    __user_perproc_libspace                  0x08000319   Thumb Code     0  libspace.o(.text)
    __user_perthread_libspace                0x08000319   Thumb Code     0  libspace.o(.text)
    __I$use$semihosting                      0x08000321   Thumb Code     0  use_no_semi.o(.text)
    __use_no_semihosting_swi                 0x08000321   Thumb Code     2  use_no_semi.o(.text)
    BusFault_Handler                         0x08000323   Thumb Code     4  stm32f7xx_it.o(i.BusFault_Handler)
    __semihosting_library_function           0x08000323   Thumb Code     0  indicate_semi.o(.text)
    DebugMon_Handler                         0x08000327   Thumb Code     2  stm32f7xx_it.o(i.DebugMon_Handler)
    HAL_Delay                                0x08000329   Thumb Code    26  stm32f7xx_hal.o(i.HAL_Delay)
    HAL_GPIO_Init                            0x08000345   Thumb Code   488  stm32f7xx_hal_gpio.o(i.HAL_GPIO_Init)
    HAL_GetTick                              0x08000561   Thumb Code     6  stm32f7xx_hal.o(i.HAL_GetTick)
    HAL_IncTick                              0x0800056d   Thumb Code    12  stm32f7xx_hal.o(i.HAL_IncTick)
    HAL_Init                                 0x0800057d   Thumb Code    34  stm32f7xx_hal.o(i.HAL_Init)
    HAL_InitTick                             0x080005a5   Thumb Code    36  stm32f7xx_hal.o(i.HAL_InitTick)
    HAL_MPU_ConfigRegion                     0x080005c9   Thumb Code    88  stm32f7xx_hal_cortex.o(i.HAL_MPU_ConfigRegion)
    HAL_MspInit                              0x08000625   Thumb Code    10  stm32f7xx_hal.o(i.HAL_MspInit)
    HAL_NVIC_SetPriority                     0x0800062f   Thumb Code   124  stm32f7xx_hal_cortex.o(i.HAL_NVIC_SetPriority)
    HAL_NVIC_SetPriorityGrouping             0x080006ad   Thumb Code    32  stm32f7xx_hal_cortex.o(i.HAL_NVIC_SetPriorityGrouping)
    HAL_PWREx_EnableOverDrive                0x080006d5   Thumb Code   140  stm32f7xx_hal_pwr_ex.o(i.HAL_PWREx_EnableOverDrive)
    HAL_RCC_ClockConfig                      0x08000769   Thumb Code   608  stm32f7xx_hal_rcc.o(i.HAL_RCC_ClockConfig)
    HAL_RCC_GetHCLKFreq                      0x080009d1   Thumb Code    42  stm32f7xx_hal_rcc.o(i.HAL_RCC_GetHCLKFreq)
    HAL_RCC_GetSysClockFreq                  0x08000a09   Thumb Code   168  stm32f7xx_hal_rcc.o(i.HAL_RCC_GetSysClockFreq)
    HAL_RCC_OscConfig                        0x08000abd   Thumb Code  1360  stm32f7xx_hal_rcc.o(i.HAL_RCC_OscConfig)
    HAL_SPI_Init                             0x08001011   Thumb Code   206  stm32f7xx_hal_spi.o(i.HAL_SPI_Init)
    HAL_SPI_MspInit                          0x080010df   Thumb Code     2  stm32f7xx_hal_spi.o(i.HAL_SPI_MspInit)
    HAL_SYSTICK_CLKSourceConfig              0x080010e1   Thumb Code    40  stm32f7xx_hal_cortex.o(i.HAL_SYSTICK_CLKSourceConfig)
    HAL_SYSTICK_Config                       0x08001109   Thumb Code    52  stm32f7xx_hal_cortex.o(i.HAL_SYSTICK_Config)
    HardFault_Handler                        0x0800113d   Thumb Code     4  stm32f7xx_it.o(i.HardFault_Handler)
    MemManage_Handler                        0x08001141   Thumb Code     4  stm32f7xx_it.o(i.MemManage_Handler)
    NMI_Handler                              0x08001145   Thumb Code     2  stm32f7xx_it.o(i.NMI_Handler)
    PendSV_Handler                           0x08001147   Thumb Code     2  stm32f7xx_it.o(i.PendSV_Handler)
    SVC_Handler                              0x08001149   Thumb Code     2  stm32f7xx_it.o(i.SVC_Handler)
    SysTick_Handler                          0x0800114b   Thumb Code     8  stm32f7xx_it.o(i.SysTick_Handler)
    SystemInit                               0x08001155   Thumb Code    82  system_stm32f7xx.o(i.SystemInit)
    UsageFault_Handler                       0x080011b9   Thumb Code     4  stm32f7xx_it.o(i.UsageFault_Handler)
    __delay_ms(int)                          0x080011bd   Thumb Code    12  device.o(i._Z10__delay_msi)
    __delay_ns(int)                          0x080011c9   Thumb Code    22  device.o(i._Z10__delay_nsi)
    clock_enable()                           0x080011e1   Thumb Code   316  init.o(i._Z12clock_enablev)
    gpio_pin_set(GPIO_TypeDef*, unsigned)    0x08001321   Thumb Code     4  gpio.o(i._Z12gpio_pin_setP12GPIO_TypeDefj)
    gpio_alt_init(GPIO_TypeDef*, unsigned, unsigned, unsigned, unsigned) 0x08001325   Thumb Code    44  gpio.o(i._Z13gpio_alt_initP12GPIO_TypeDefjjjj)
    gpio_pin_init(GPIO_TypeDef*, unsigned, unsigned, unsigned) 0x08001355   Thumb Code    38  gpio.o(i._Z13gpio_pin_initP12GPIO_TypeDefjjj)
    gpio_pin_reset(GPIO_TypeDef*, unsigned)  0x08001381   Thumb Code     6  gpio.o(i._Z14gpio_pin_resetP12GPIO_TypeDefj)
    SPI_Enc28j60_Init()                      0x08001389   Thumb Code    98  init.o(i._Z17SPI_Enc28j60_Initv)
    SystemClock_Config()                     0x080013f5   Thumb Code   200  init.o(i._Z18SystemClock_Configv)
    spi_init()                               0x080014c5   Thumb Code     2  init.o(i._Z8spi_initv)
    core_init()                              0x080014c7   Thumb Code    16  init.o(i._Z9core_initv)
    gpio_init()                              0x080014d9   Thumb Code   138  init.o(i._Z9gpio_initv)
    Device::goIddle()                        0x08001739   Thumb Code    52  main.o(i._ZN6Device7goIddleEv)
    Device::Device()                         0x08001779   Thumb Code   220  main.o(i._ZN6DeviceC1Ev)
    Device::Device__sub_object()             0x08001779   Thumb Code     0  main.o(i._ZN6DeviceC1Ev)
    __cxa_guard_acquire                      0x08001875   Thumb Code    16  cxa_guard_acquire.o(i.__cxa_guard_acquire)
    main                                     0x08001885   Thumb Code     8  main.o(i.main)
    _fp_init                                 0x0800188d   Thumb Code    10  fpinit.o(x$fpl$fpinit)
    __fplib_config_fpu_vfp                   0x08001895   Thumb Code     0  fpinit.o(x$fpl$fpinit)
    __fplib_config_pureend_doubles           0x08001895   Thumb Code     0  fpinit.o(x$fpl$fpinit)
    vtable for StepMotorAB                   0x080018a8   Data          40  device.o(.constdata__ZTV11StepMotorAB)
    vtable for Synchronizer<StepMotorAB>     0x080018d0   Data          24  main.o(.constdata__ZTV12SynchronizerI11StepMotorABE)
    Region$$Table$$Base                      0x080018e8   Number         0  anon$$obj.o(Region$$Table)
    Region$$Table$$Limit                     0x08001908   Number         0  anon$$obj.o(Region$$Table)
    __wFace                                  0x20010004   Data           4  web_interface.o(.data)
    SystemCoreClock                          0x20010008   Data           4  system_stm32f7xx.o(.data)
    guard variable for Device::Device()::web 0x2001000c   Data           4  main.o(.data__ZZN6DeviceC1EvE3web)
    Device::Device()::web                    0x20010010   Data           4  main.o(.data__ZZN6DeviceC1EvE3web)
    SpiHandle_Enc28j60                       0x20010014   Data         100  init.o(.bss)
    __libspace_start                         0x200100a0   Data          96  libspace.o(.bss)
    __temporary_stack_top$libspace           0x20010100   Data           0  libspace.o(.bss)



==============================================================================

Memory Map of the image

  Image Entry point : 0x080001c9

  Load Region LR_IROM1 (Base: 0x08000000, Size: 0x0000191c, Max: 0x00100000, ABSOLUTE)

    Execution Region ER_IROM1 (Base: 0x08000000, Size: 0x00001908, Max: 0x00100000, ABSOLUTE)

    Base Addr    Size         Type   Attr      Idx    E Section Name        Object

    0x08000000   0x000001c8   Data   RO         2835    RESET               startup_stm32f746xx.o
    0x080001c8   0x00000008   Code   RO         2885  * !!!main             c_w.l(__main.o)
    0x080001d0   0x00000034   Code   RO         3302    !!!scatter          c_w.l(__scatter.o)
    0x08000204   0x0000001a   Code   RO         3304    !!handler_copy      c_w.l(__scatter_copy.o)
    0x0800021e   0x00000002   PAD
    0x08000220   0x0000001c   Code   RO         3306    !!handler_zi        c_w.l(__scatter_zi.o)
    0x0800023c   0x00000002   Code   RO         3113    .ARM.Collect$$libinit$$00000000  c_w.l(libinit.o)
    0x0800023e   0x00000004   Code   RO         3165    .ARM.Collect$$libinit$$00000001  c_w.l(libinit2.o)
    0x08000242   0x00000000   Code   RO         3168    .ARM.Collect$$libinit$$00000004  c_w.l(libinit2.o)
    0x08000242   0x00000000   Code   RO         3171    .ARM.Collect$$libinit$$0000000A  c_w.l(libinit2.o)
    0x08000242   0x00000000   Code   RO         3173    .ARM.Collect$$libinit$$0000000C  c_w.l(libinit2.o)
    0x08000242   0x00000000   Code   RO         3175    .ARM.Collect$$libinit$$0000000E  c_w.l(libinit2.o)
    0x08000242   0x00000000   Code   RO         3178    .ARM.Collect$$libinit$$00000011  c_w.l(libinit2.o)
    0x08000242   0x00000000   Code   RO         3180    .ARM.Collect$$libinit$$00000013  c_w.l(libinit2.o)
    0x08000242   0x00000000   Code   RO         3182    .ARM.Collect$$libinit$$00000015  c_w.l(libinit2.o)
    0x08000242   0x00000000   Code   RO         3184    .ARM.Collect$$libinit$$00000017  c_w.l(libinit2.o)
    0x08000242   0x00000000   Code   RO         3186    .ARM.Collect$$libinit$$00000019  c_w.l(libinit2.o)
    0x08000242   0x00000000   Code   RO         3188    .ARM.Collect$$libinit$$0000001B  c_w.l(libinit2.o)
    0x08000242   0x00000000   Code   RO         3190    .ARM.Collect$$libinit$$0000001D  c_w.l(libinit2.o)
    0x08000242   0x00000000   Code   RO         3192    .ARM.Collect$$libinit$$0000001F  c_w.l(libinit2.o)
    0x08000242   0x00000000   Code   RO         3194    .ARM.Collect$$libinit$$00000021  c_w.l(libinit2.o)
    0x08000242   0x00000000   Code   RO         3196    .ARM.Collect$$libinit$$00000023  c_w.l(libinit2.o)
    0x08000242   0x00000000   Code   RO         3198    .ARM.Collect$$libinit$$00000025  c_w.l(libinit2.o)
    0x08000242   0x00000000   Code   RO         3202    .ARM.Collect$$libinit$$0000002C  c_w.l(libinit2.o)
    0x08000242   0x00000000   Code   RO         3204    .ARM.Collect$$libinit$$0000002E  c_w.l(libinit2.o)
    0x08000242   0x00000000   Code   RO         3206    .ARM.Collect$$libinit$$00000030  c_w.l(libinit2.o)
    0x08000242   0x00000000   Code   RO         3208    .ARM.Collect$$libinit$$00000032  c_w.l(libinit2.o)
    0x08000242   0x00000002   Code   RO         3209    .ARM.Collect$$libinit$$00000033  c_w.l(libinit2.o)
    0x08000244   0x00000002   Code   RO         3261    .ARM.Collect$$libshutdown$$00000000  c_w.l(libshutdown.o)
    0x08000246   0x00000000   Code   RO         3271    .ARM.Collect$$libshutdown$$00000002  c_w.l(libshutdown2.o)
    0x08000246   0x00000000   Code   RO         3273    .ARM.Collect$$libshutdown$$00000004  c_w.l(libshutdown2.o)
    0x08000246   0x00000000   Code   RO         3276    .ARM.Collect$$libshutdown$$00000007  c_w.l(libshutdown2.o)
    0x08000246   0x00000000   Code   RO         3279    .ARM.Collect$$libshutdown$$0000000A  c_w.l(libshutdown2.o)
    0x08000246   0x00000000   Code   RO         3281    .ARM.Collect$$libshutdown$$0000000C  c_w.l(libshutdown2.o)
    0x08000246   0x00000000   Code   RO         3284    .ARM.Collect$$libshutdown$$0000000F  c_w.l(libshutdown2.o)
    0x08000246   0x00000002   Code   RO         3285    .ARM.Collect$$libshutdown$$00000010  c_w.l(libshutdown2.o)
    0x08000248   0x00000000   Code   RO         2999    .ARM.Collect$$rtentry$$00000000  c_w.l(__rtentry.o)
    0x08000248   0x00000000   Code   RO         3014    .ARM.Collect$$rtentry$$00000002  c_w.l(__rtentry2.o)
    0x08000248   0x00000006   Code   RO         3026    .ARM.Collect$$rtentry$$00000004  c_w.l(__rtentry4.o)
    0x0800024e   0x00000000   Code   RO         3016    .ARM.Collect$$rtentry$$00000009  c_w.l(__rtentry2.o)
    0x0800024e   0x00000004   Code   RO         3017    .ARM.Collect$$rtentry$$0000000A  c_w.l(__rtentry2.o)
    0x08000252   0x00000000   Code   RO         3019    .ARM.Collect$$rtentry$$0000000C  c_w.l(__rtentry2.o)
    0x08000252   0x00000008   Code   RO         3020    .ARM.Collect$$rtentry$$0000000D  c_w.l(__rtentry2.o)
    0x0800025a   0x00000002   Code   RO         3124    .ARM.Collect$$rtexit$$00000000  c_w.l(rtexit.o)
    0x0800025c   0x00000000   Code   RO         3216    .ARM.Collect$$rtexit$$00000002  c_w.l(rtexit2.o)
    0x0800025c   0x00000004   Code   RO         3217    .ARM.Collect$$rtexit$$00000003  c_w.l(rtexit2.o)
    0x08000260   0x00000006   Code   RO         3218    .ARM.Collect$$rtexit$$00000004  c_w.l(rtexit2.o)
    0x08000266   0x00000002   PAD
    0x08000268   0x00000040   Code   RO         2836    .text               startup_stm32f746xx.o
    0x080002a8   0x00000006   Code   RO         2883    .text               c_w.l(heapauxi.o)
    0x080002ae   0x0000004a   Code   RO         3041    .text               c_w.l(sys_stackheap_outer.o)
    0x080002f8   0x00000012   Code   RO         3104    .text               c_w.l(exit.o)
    0x0800030a   0x00000002   PAD
    0x0800030c   0x0000000c   Code   RO         3117    .text               c_w.l(sys_exit.o)
    0x08000318   0x00000008   Code   RO         3119    .text               c_w.l(libspace.o)
    0x08000320   0x00000002   Code   RO         3212    .text               c_w.l(use_no_semi.o)
    0x08000322   0x00000000   Code   RO         3214    .text               c_w.l(indicate_semi.o)
    0x08000322   0x00000004   Code   RO         1925    i.BusFault_Handler  stm32f7xx_it.o
    0x08000326   0x00000002   Code   RO         1926    i.DebugMon_Handler  stm32f7xx_it.o
    0x08000328   0x0000001a   Code   RO           11    i.HAL_Delay         stm32f7xx_hal.o
    0x08000342   0x00000002   PAD
    0x08000344   0x0000021c   Code   RO          681    i.HAL_GPIO_Init     stm32f7xx_hal_gpio.o
    0x08000560   0x0000000c   Code   RO           19    i.HAL_GetTick       stm32f7xx_hal.o
    0x0800056c   0x00000010   Code   RO           20    i.HAL_IncTick       stm32f7xx_hal.o
    0x0800057c   0x00000028   Code   RO           21    i.HAL_Init          stm32f7xx_hal.o
    0x080005a4   0x00000024   Code   RO           22    i.HAL_InitTick      stm32f7xx_hal.o
    0x080005c8   0x0000005c   Code   RO          271    i.HAL_MPU_ConfigRegion  stm32f7xx_hal_cortex.o
    0x08000624   0x0000000a   Code   RO           24    i.HAL_MspInit       stm32f7xx_hal.o
    0x0800062e   0x0000007c   Code   RO          280    i.HAL_NVIC_SetPriority  stm32f7xx_hal_cortex.o
    0x080006aa   0x00000002   PAD
    0x080006ac   0x00000028   Code   RO          281    i.HAL_NVIC_SetPriorityGrouping  stm32f7xx_hal_cortex.o
    0x080006d4   0x00000094   Code   RO         1056    i.HAL_PWREx_EnableOverDrive  stm32f7xx_hal_pwr_ex.o
    0x08000768   0x00000268   Code   RO          753    i.HAL_RCC_ClockConfig  stm32f7xx_hal_rcc.o
    0x080009d0   0x00000038   Code   RO          758    i.HAL_RCC_GetHCLKFreq  stm32f7xx_hal_rcc.o
    0x08000a08   0x000000b4   Code   RO          762    i.HAL_RCC_GetSysClockFreq  stm32f7xx_hal_rcc.o
    0x08000abc   0x00000554   Code   RO          765    i.HAL_RCC_OscConfig  stm32f7xx_hal_rcc.o
    0x08001010   0x000000ce   Code   RO         1163    i.HAL_SPI_Init      stm32f7xx_hal_spi.o
    0x080010de   0x00000002   Code   RO         1165    i.HAL_SPI_MspInit   stm32f7xx_hal_spi.o
    0x080010e0   0x00000028   Code   RO          283    i.HAL_SYSTICK_CLKSourceConfig  stm32f7xx_hal_cortex.o
    0x08001108   0x00000034   Code   RO          285    i.HAL_SYSTICK_Config  stm32f7xx_hal_cortex.o
    0x0800113c   0x00000004   Code   RO         1927    i.HardFault_Handler  stm32f7xx_it.o
    0x08001140   0x00000004   Code   RO         1928    i.MemManage_Handler  stm32f7xx_it.o
    0x08001144   0x00000002   Code   RO         1929    i.NMI_Handler       stm32f7xx_it.o
    0x08001146   0x00000002   Code   RO         1930    i.PendSV_Handler    stm32f7xx_it.o
    0x08001148   0x00000002   Code   RO         1931    i.SVC_Handler       stm32f7xx_it.o
    0x0800114a   0x00000008   Code   RO         1932    i.SysTick_Handler   stm32f7xx_it.o
    0x08001152   0x00000002   PAD
    0x08001154   0x00000064   Code   RO         2844    i.SystemInit        system_stm32f7xx.o
    0x080011b8   0x00000004   Code   RO         1933    i.UsageFault_Handler  stm32f7xx_it.o
    0x080011bc   0x0000000c   Code   RO         2097    i._Z10__delay_msi   device.o
    0x080011c8   0x00000016   Code   RO         2098    i._Z10__delay_nsi   device.o
    0x080011de   0x00000002   PAD
    0x080011e0   0x00000140   Code   RO         2009    i._Z12clock_enablev  init.o
    0x08001320   0x00000004   Code   RO         2172    i._Z12gpio_pin_setP12GPIO_TypeDefj  gpio.o
    0x08001324   0x00000030   Code   RO         2174    i._Z13gpio_alt_initP12GPIO_TypeDefjjjj  gpio.o
    0x08001354   0x0000002c   Code   RO         2175    i._Z13gpio_pin_initP12GPIO_TypeDefjjj  gpio.o
    0x08001380   0x00000006   Code   RO         2179    i._Z14gpio_pin_resetP12GPIO_TypeDefj  gpio.o
    0x08001386   0x00000002   PAD
    0x08001388   0x0000006c   Code   RO         2010    i._Z17SPI_Enc28j60_Initv  init.o
    0x080013f4   0x000000d0   Code   RO         2011    i._Z18SystemClock_Configv  init.o
    0x080014c4   0x00000002   Code   RO         2012    i._Z8spi_initv      init.o
    0x080014c6   0x00000010   Code   RO         2013    i._Z9core_initv     init.o
    0x080014d6   0x00000002   PAD
    0x080014d8   0x000000a0   Code   RO         2014    i._Z9gpio_initv     init.o
    0x08001578   0x00000084   Code   RO         2015    i._ZN29_INTERNAL_8_init_cpp_8c3459f110MPU_ConfigEv  init.o
    0x080015fc   0x00000068   Code   RO         2016    i._ZN29_INTERNAL_8_init_cpp_8c3459f116CPU_CACHE_EnableEv  init.o
    0x08001664   0x0000009c   Code   RO         2017    i._ZN29_INTERNAL_8_init_cpp_8c3459f116SCB_EnableDCacheEv  init.o
    0x08001700   0x00000028   Code   RO          287    i._ZN44_INTERNAL_22_stm32f7xx_hal_cortex_c_2992dbc016NVIC_SetPriorityE9IRQn_Typej  stm32f7xx_hal_cortex.o
    0x08001728   0x00000010   Code   RO          288    i._ZN44_INTERNAL_22_stm32f7xx_hal_cortex_c_2992dbc024NVIC_GetPriorityGroupingEv  stm32f7xx_hal_cortex.o
    0x08001738   0x00000040   Code   RO         1833    i._ZN6Device7goIddleEv  main.o
    0x08001778   0x000000fc   Code   RO         1839    i._ZN6DeviceC1Ev    main.o
    0x08001874   0x00000010   Code   RO         2887    i.__cxa_guard_acquire  cpprt_w.l(cxa_guard_acquire.o)
    0x08001884   0x00000008   Code   RO         1814    i.main              main.o
    0x0800188c   0x0000000a   Code   RO         3245    x$fpl$fpinit        fz_wm.l(fpinit.o)
    0x08001896   0x00000010   Data   RO          780    .constdata          stm32f7xx_hal_rcc.o
    0x080018a6   0x00000002   PAD
    0x080018a8   0x00000028   Data   RO         2148    .constdata__ZTV11StepMotorAB  device.o
    0x080018d0   0x00000018   Data   RO         1846    .constdata__ZTV12SynchronizerI11StepMotorABE  main.o
    0x080018e8   0x00000020   Data   RO         3300    Region$$Table       anon$$obj.o


    Execution Region RW_IRAM1 (Base: 0x20010000, Size: 0x00000700, Max: 0x00040000, ABSOLUTE)

    Base Addr    Size         Type   Attr      Idx    E Section Name        Object

    0x20010000   0x00000004   Data   RW           50    .data               stm32f7xx_hal.o
    0x20010004   0x00000004   Data   RW         2797    .data               web_interface.o
    0x20010008   0x00000004   Data   RW         2848    .data               system_stm32f7xx.o
    0x2001000c   0x00000008   Data   RW         1847    .data__ZZN6DeviceC1EvE3web  main.o
    0x20010014   0x00000064   Zero   RW         2027    .bss                init.o
    0x20010078   0x00000028   Zero   RW         2190    .bss                gpio.o
    0x200100a0   0x00000060   Zero   RW         3120    .bss                c_w.l(libspace.o)
    0x20010100   0x00000200   Zero   RW         2834    HEAP                startup_stm32f746xx.o
    0x20010300   0x00000400   Zero   RW         2833    STACK               startup_stm32f746xx.o


==============================================================================

Image component sizes


      Code (inc. data)   RO Data    RW Data    ZI Data      Debug   Object Name

        34          0         40          0          0       3474   device.o
       102         10          0          0         40       2744   gpio.o
      1206         68          0          0        100      43887   init.o
       324         44         24          8          0       7089   main.o
        64         26        456          0       1536        860   startup_stm32f746xx.o
       140         16          0          4          0     344568   stm32f7xx_hal.o
       404         26          0          0          0      37511   stm32f7xx_hal_cortex.o
       540         52          0          0          0       1956   stm32f7xx_hal_gpio.o
       148          8          0          0          0       1460   stm32f7xx_hal_pwr_ex.o
      2216         48         16          0          0       5158   stm32f7xx_hal_rcc.o
       208          0          0          0          0       2037   stm32f7xx_hal_spi.o
        32          0          0          0          0       4062   stm32f7xx_it.o
       100         18          0          4          0       1211   system_stm32f7xx.o
         0          0          0          4          0       2178   web_interface.o

    ----------------------------------------------------------------------
      5530        316        570         20       1676     458195   Object Totals
         0          0         32          0          0          0   (incl. Generated)
        12          0          2          0          0          0   (incl. Padding)

    ----------------------------------------------------------------------

      Code (inc. data)   RO Data    RW Data    ZI Data      Debug   Library Member Name

         8          0          0          0          0         68   __main.o
         0          0          0          0          0          0   __rtentry.o
        12          0          0          0          0          0   __rtentry2.o
         6          0          0          0          0          0   __rtentry4.o
        52          8          0          0          0          0   __scatter.o
        26          0          0          0          0          0   __scatter_copy.o
        28          0          0          0          0          0   __scatter_zi.o
        18          0          0          0          0         80   exit.o
         6          0          0          0          0        152   heapauxi.o
         0          0          0          0          0          0   indicate_semi.o
         2          0          0          0          0          0   libinit.o
         6          0          0          0          0          0   libinit2.o
         2          0          0          0          0          0   libshutdown.o
         2          0          0          0          0          0   libshutdown2.o
         8          4          0          0         96         68   libspace.o
         2          0          0          0          0          0   rtexit.o
        10          0          0          0          0          0   rtexit2.o
        12          4          0          0          0         68   sys_exit.o
        74          0          0          0          0         80   sys_stackheap_outer.o
         2          0          0          0          0         68   use_no_semi.o
        16          0          0          0          0         68   cxa_guard_acquire.o
        10          0          0          0          0        116   fpinit.o

    ----------------------------------------------------------------------
       308         16          0          0         96        768   Library Totals
         6          0          0          0          0          0   (incl. Padding)

    ----------------------------------------------------------------------

      Code (inc. data)   RO Data    RW Data    ZI Data      Debug   Library Name

       276         16          0          0         96        584   c_w.l
        16          0          0          0          0         68   cpprt_w.l
        10          0          0          0          0        116   fz_wm.l

    ----------------------------------------------------------------------
       308         16          0          0         96        768   Library Totals

    ----------------------------------------------------------------------

==============================================================================


      Code (inc. data)   RO Data    RW Data    ZI Data      Debug   

      5838        332        570         20       1772     454455   Grand Totals
      5838        332        570         20       1772     454455   ELF Image Totals
      5838        332        570         20          0          0   ROM Totals

==============================================================================

    Total RO  Size (Code + RO Data)                 6408 (   6.26kB)
    Total RW  Size (RW Data + ZI Data)              1792 (   1.75kB)
    Total ROM Size (Code + RO Data + RW Data)       6428 (   6.28kB)

==============================================================================

